# SymbolsHelper-Confirmed: 4.3.23 amd64 i386
libamqpcpp.so.4.3 libamqpcpp4.3 #MINVER#
 _ZN4AMQP10BooleanSetD0Ev@Base 4.3.23
 _ZN4AMQP10BooleanSetD1Ev@Base 4.3.23
 _ZN4AMQP10BooleanSetD2Ev@Base 4.3.23
 _ZN4AMQP10ConnectionD0Ev@Base 4.3.23
 _ZN4AMQP10ConnectionD1Ev@Base 4.3.23
 _ZN4AMQP10ConnectionD2Ev@Base 4.3.23
 (optional=templinst)_ZN4AMQP10FieldProxyINS_5TableENSt7__cxx1112basic_stringIcSt11char_traitsIcESaIcEEEEaSEPKc@Base 4.3.23
 (optional=templinst)_ZN4AMQP10FieldProxyINS_5TableENSt7__cxx1112basic_stringIcSt11char_traitsIcESaIcEEEEaSEb@Base 4.3.23
 _ZN4AMQP10SslContextD0Ev@Base 4.3.23
 _ZN4AMQP10SslContextD1Ev@Base 4.3.23
 _ZN4AMQP10SslContextD2Ev@Base 4.3.23
 _ZN4AMQP10SslWrapperD0Ev@Base 4.3.23
 _ZN4AMQP10SslWrapperD1Ev@Base 4.3.23
 _ZN4AMQP10SslWrapperD2Ev@Base 4.3.23
 _ZN4AMQP10TcpHandler10onAttachedEPNS_13TcpConnectionE@Base 4.3.23
 _ZN4AMQP10TcpHandler10onDetachedEPNS_13TcpConnectionE@Base 4.3.23
 _ZN4AMQP10TcpHandler10onSecuringEPNS_13TcpConnectionEP6ssl_st@Base 4.3.23
 _ZN4AMQP10TcpHandler11onConnectedEPNS_13TcpConnectionE@Base 4.3.23
 _ZN4AMQP10TcpHandler11onHeartbeatEPNS_13TcpConnectionE@Base 4.3.23
 _ZN4AMQP10TcpHandler11onNegotiateEPNS_13TcpConnectionEt@Base 4.3.23
 _ZN4AMQP10TcpHandler12onPropertiesEPNS_13TcpConnectionERKNS_5TableERS3_@Base 4.3.23
 _ZN4AMQP10TcpHandler6onLostEPNS_13TcpConnectionE@Base 4.3.23
 _ZN4AMQP10TcpHandler7onErrorEPNS_13TcpConnectionEPKc@Base 4.3.23
 _ZN4AMQP10TcpHandler7onReadyEPNS_13TcpConnectionE@Base 4.3.23
 _ZN4AMQP10TcpHandler8onClosedEPNS_13TcpConnectionE@Base 4.3.23
 _ZN4AMQP10TcpHandler9onSecuredEPNS_13TcpConnectionEPK6ssl_st@Base 4.3.23
 _ZN4AMQP10autodeleteE@Base 4.3.23
 _ZN4AMQP11AddressInfo7shuffleEv@Base 4.3.23
 _ZN4AMQP11AddressInfoC1EPKctRKNS_15ConnectionOrderE@Base 4.3.23
 _ZN4AMQP11AddressInfoC2EPKctRKNS_15ConnectionOrderE@Base 4.3.23
 _ZN4AMQP11AddressInfoD0Ev@Base 4.3.23
 _ZN4AMQP11AddressInfoD1Ev@Base 4.3.23
 _ZN4AMQP11AddressInfoD2Ev@Base 4.3.23
 _ZN4AMQP11BufferCheckD0Ev@Base 4.3.23
 _ZN4AMQP11BufferCheckD1Ev@Base 4.3.23
 _ZN4AMQP11BufferCheckD2Ev@Base 4.3.23
 _ZN4AMQP11ChannelImpl10purgeQueueERKSt17basic_string_viewIcSt11char_traitsIcEE@Base 4.3.23
 _ZN4AMQP11ChannelImpl11removeQueueERKSt17basic_string_viewIcSt11char_traitsIcEEi@Base 4.3.23
 _ZN4AMQP11ChannelImpl11reportErrorEPKcb@Base 4.3.23
 _ZN4AMQP11ChannelImpl11unbindQueueERKSt17basic_string_viewIcSt11char_traitsIcEES6_S6_RKNS_5TableE@Base 4.3.23
 _ZN4AMQP11ChannelImpl12bindExchangeERKSt17basic_string_viewIcSt11char_traitsIcEES6_S6_RKNS_5TableE@Base 4.3.23
 _ZN4AMQP11ChannelImpl12declareQueueERKSt17basic_string_viewIcSt11char_traitsIcEEiRKNS_5TableE@Base 4.3.23
 _ZN4AMQP11ChannelImpl13confirmSelectEv@Base 4.3.23
 _ZN4AMQP11ChannelImpl13reportSuccessIJEEEbDpT_@Base 4.3.23
 (optional=templinst)_ZN4AMQP11ChannelImpl13reportSuccessIJNSt7__cxx1112basic_stringIcSt11char_traitsIcESaIcEEEEEEbDpT_@Base 4.3.23
 (optional=templinst)_ZN4AMQP11ChannelImpl13reportSuccessIJNSt7__cxx1112basic_stringIcSt11char_traitsIcESaIcEEEjjEEEbDpT_@Base 4.3.23
 (optional=templinst)_ZN4AMQP11ChannelImpl13reportSuccessIJRKNSt7__cxx1112basic_stringIcSt11char_traitsIcESaIcEEEEEEbDpT_@Base 4.3.23
 (optional=templinst)_ZN4AMQP11ChannelImpl13reportSuccessIJjEEEbDpT_@Base 4.3.23
 (optional=templinst|arch=amd64)_ZN4AMQP11ChannelImpl13reportSuccessIJjmbEEEbDpT_@Base 4.3.23
 (optional=templinst|arch=i386)_ZN4AMQP11ChannelImpl13reportSuccessIJjybEEEbDpT_@Base 4.3.23
 _ZN4AMQP11ChannelImpl14removeExchangeERKSt17basic_string_viewIcSt11char_traitsIcEEi@Base 4.3.23
 _ZN4AMQP11ChannelImpl14unbindExchangeERKSt17basic_string_viewIcSt11char_traitsIcEES6_S6_RKNS_5TableE@Base 4.3.23
 _ZN4AMQP11ChannelImpl15declareExchangeERKSt17basic_string_viewIcSt11char_traitsIcEENS_12ExchangeTypeEiRKNS_5TableE@Base 4.3.23
 _ZN4AMQP11ChannelImpl15reportCancelledERKNSt7__cxx1112basic_stringIcSt11char_traitsIcESaIcEEE@Base 4.3.23
 _ZN4AMQP11ChannelImpl16startTransactionEv@Base 4.3.23
 _ZN4AMQP11ChannelImpl17commitTransactionEv@Base 4.3.23
 _ZN4AMQP11ChannelImpl19rollbackTransactionEv@Base 4.3.23
 (optional=templinst|subst|arch=i386)_ZN4AMQP11ChannelImpl3ackE{uint64_t}i@Base 4.3.23
 _ZN4AMQP11ChannelImpl3getERKSt17basic_string_viewIcSt11char_traitsIcEEi@Base 4.3.23
 _ZN4AMQP11ChannelImpl4pushERKNS_5FrameE@Base 4.3.23
 _ZN4AMQP11ChannelImpl4pushERKSt10shared_ptrINS_8DeferredEE@Base 4.3.23
 _ZN4AMQP11ChannelImpl4sendEONS_12CopiedBufferE@Base 4.3.23
 _ZN4AMQP11ChannelImpl4sendERKNS_5FrameE@Base 4.3.23
 _ZN4AMQP11ChannelImpl5closeEv@Base 4.3.23
 _ZN4AMQP11ChannelImpl5flushEv@Base 4.3.23
 _ZN4AMQP11ChannelImpl5pauseEv@Base 4.3.23
 _ZN4AMQP11ChannelImpl6attachEPNS_10ConnectionE@Base 4.3.23
 _ZN4AMQP11ChannelImpl6cancelERKSt17basic_string_viewIcSt11char_traitsIcEE@Base 4.3.23
 _ZN4AMQP11ChannelImpl6recallEv@Base 4.3.23
 (optional=templinst|subst|arch=i386)_ZN4AMQP11ChannelImpl6rejectE{uint64_t}i@Base 4.3.23
 _ZN4AMQP11ChannelImpl6resumeEv@Base 4.3.23
 _ZN4AMQP11ChannelImpl6setQosEtb@Base 4.3.23
 _ZN4AMQP11ChannelImpl7consumeERKSt17basic_string_viewIcSt11char_traitsIcEES6_iRKNS_5TableE@Base 4.3.23
 _ZN4AMQP11ChannelImpl7onErrorEOSt8functionIFvPKcEE@Base 4.3.23
 _ZN4AMQP11ChannelImpl7publishERKSt17basic_string_viewIcSt11char_traitsIcEES6_RKNS_8EnvelopeEi@Base 4.3.23
 _ZN4AMQP11ChannelImpl7recoverEi@Base 4.3.23
 _ZN4AMQP11ChannelImpl9bindQueueERKSt17basic_string_viewIcSt11char_traitsIcEES6_S6_RKNS_5TableE@Base 4.3.23
 _ZN4AMQP11ChannelImplC1Ev@Base 4.3.23
 _ZN4AMQP11ChannelImplC2Ev@Base 4.3.23
 _ZN4AMQP11ChannelImplD0Ev@Base 4.3.23
 _ZN4AMQP11ChannelImplD1Ev@Base 4.3.23
 _ZN4AMQP11ChannelImplD2Ev@Base 4.3.23
 (optional=templinst|subst|arch=i386)_ZN4AMQP11DeferredGet13reportSuccessEj{uint64_t}b@Base 4.3.23
 _ZN4AMQP11DeferredGet4lockEv@Base 4.3.23
 _ZN4AMQP11DeferredGet8completeEv@Base 4.3.23
 _ZN4AMQP11DeferredGetD0Ev@Base 4.3.23
 _ZN4AMQP11DeferredGetD1Ev@Base 4.3.23
 _ZN4AMQP11DeferredGetD2Ev@Base 4.3.23
 _ZN4AMQP11MethodFrame7processEPNS_14ConnectionImplE@Base 4.3.23
 (arch=amd64)_ZN4AMQP11SslShutdown6repeatERKNS_7MonitorEi@Base 4.3.23
 _ZN4AMQP11SslShutdown7proceedERKNS_7MonitorE@Base 4.3.23
 _ZN4AMQP11SslShutdown7processERKNS_7MonitorEii@Base 4.3.23
 _ZN4AMQP11SslShutdownD0Ev@Base 4.3.23
 _ZN4AMQP11SslShutdownD1Ev@Base 4.3.23
 _ZN4AMQP11SslShutdownD2Ev@Base 4.3.23
 (optional=templinst)_ZN4AMQP11StringFieldINS_12NumericFieldIhLc66ESt9enable_ifILb1EhEEELc115EEC1ERNS_8InBufferE@Base 4.3.23
 (optional=templinst)_ZN4AMQP11StringFieldINS_12NumericFieldIhLc66ESt9enable_ifILb1EhEEELc115EEC2ERNS_8InBufferE@Base 4.3.23
 (optional=templinst)_ZN4AMQP11StringFieldINS_12NumericFieldIhLc66ESt9enable_ifILb1EhEEELc115EED0Ev@Base 4.3.23
 (optional=templinst)_ZN4AMQP11StringFieldINS_12NumericFieldIhLc66ESt9enable_ifILb1EhEEELc115EED1Ev@Base 4.3.23
 (optional=templinst)_ZN4AMQP11StringFieldINS_12NumericFieldIhLc66ESt9enable_ifILb1EhEEELc115EED2Ev@Base 4.3.23
 (optional=templinst)_ZN4AMQP11StringFieldINS_12NumericFieldIjLc105ESt9enable_ifILb1EjEEELc83EEC1ERNS_8InBufferE@Base 4.3.23
 (optional=templinst)_ZN4AMQP11StringFieldINS_12NumericFieldIjLc105ESt9enable_ifILb1EjEEELc83EEC2ERNS_8InBufferE@Base 4.3.23
 (optional=templinst)_ZN4AMQP11StringFieldINS_12NumericFieldIjLc105ESt9enable_ifILb1EjEEELc83EED0Ev@Base 4.3.23
 (optional=templinst)_ZN4AMQP11StringFieldINS_12NumericFieldIjLc105ESt9enable_ifILb1EjEEELc83EED1Ev@Base 4.3.23
 (optional=templinst)_ZN4AMQP11StringFieldINS_12NumericFieldIjLc105ESt9enable_ifILb1EjEEELc83EED2Ev@Base 4.3.23
 _ZN4AMQP11TcpExtState7cleanupEv@Base 4.3.23
 _ZN4AMQP11TcpExtStateD0Ev@Base 4.3.23
 _ZN4AMQP11TcpExtStateD1Ev@Base 4.3.23
 _ZN4AMQP11TcpExtStateD2Ev@Base 4.3.23
 _ZN4AMQP11TcpInBufferD0Ev@Base 4.3.23
 _ZN4AMQP11TcpInBufferD1Ev@Base 4.3.23
 _ZN4AMQP11TcpInBufferD2Ev@Base 4.3.23
 _ZN4AMQP11TcpResolver3runEv@Base 4.3.23
 (optional=templinst|subst|arch=i386)_ZN4AMQP11TcpResolver4sendEPKc{size_t}@Base 4.3.23
 _ZN4AMQP11TcpResolver7proceedERKNS_7MonitorE@Base 4.3.23
 _ZN4AMQP11TcpResolver7processERKNS_7MonitorEii@Base 4.3.23
 _ZN4AMQP11TcpResolverD0Ev@Base 4.3.23
 _ZN4AMQP11TcpResolverD1Ev@Base 4.3.23
 _ZN4AMQP11TcpResolverD2Ev@Base 4.3.23
 _ZN4AMQP11redeliveredE@Base 4.3.23
 (optional=templinst|subst|arch=i386)_ZN4AMQP12CopiedBuffer6appendEPKv{size_t}@Base 4.3.23
 _ZN4AMQP12CopiedBufferD0Ev@Base 4.3.23
 _ZN4AMQP12CopiedBufferD1Ev@Base 4.3.23
 _ZN4AMQP12CopiedBufferD2Ev@Base 4.3.23
 _ZN4AMQP12DecimalFieldD0Ev@Base 4.3.23
 _ZN4AMQP12DecimalFieldD1Ev@Base 4.3.23
 _ZN4AMQP12DecimalFieldD2Ev@Base 4.3.23
 (optional=templinst)_ZN4AMQP12NumericFieldIaLc98ESt9enable_ifILb1EaEED0Ev@Base 4.3.23
 (optional=templinst)_ZN4AMQP12NumericFieldIaLc98ESt9enable_ifILb1EaEED1Ev@Base 4.3.23
 (optional=templinst)_ZN4AMQP12NumericFieldIaLc98ESt9enable_ifILb1EaEED2Ev@Base 4.3.23
 (optional=templinst)_ZN4AMQP12NumericFieldIdLc100ESt9enable_ifILb1EdEED0Ev@Base 4.3.23
 (optional=templinst)_ZN4AMQP12NumericFieldIdLc100ESt9enable_ifILb1EdEED1Ev@Base 4.3.23
 (optional=templinst)_ZN4AMQP12NumericFieldIdLc100ESt9enable_ifILb1EdEED2Ev@Base 4.3.23
 (optional=templinst)_ZN4AMQP12NumericFieldIfLc102ESt9enable_ifILb1EfEED0Ev@Base 4.3.23
 (optional=templinst)_ZN4AMQP12NumericFieldIfLc102ESt9enable_ifILb1EfEED1Ev@Base 4.3.23
 (optional=templinst)_ZN4AMQP12NumericFieldIfLc102ESt9enable_ifILb1EfEED2Ev@Base 4.3.23
 (optional=templinst)_ZN4AMQP12NumericFieldIhLc66ESt9enable_ifILb1EhEED0Ev@Base 4.3.23
 (optional=templinst)_ZN4AMQP12NumericFieldIhLc66ESt9enable_ifILb1EhEED1Ev@Base 4.3.23
 (optional=templinst)_ZN4AMQP12NumericFieldIhLc66ESt9enable_ifILb1EhEED2Ev@Base 4.3.23
 (optional=templinst)_ZN4AMQP12NumericFieldIiLc73ESt9enable_ifILb1EiEED0Ev@Base 4.3.23
 (optional=templinst)_ZN4AMQP12NumericFieldIiLc73ESt9enable_ifILb1EiEED1Ev@Base 4.3.23
 (optional=templinst)_ZN4AMQP12NumericFieldIiLc73ESt9enable_ifILb1EiEED2Ev@Base 4.3.23
 (optional=templinst)_ZN4AMQP12NumericFieldIjLc105ESt9enable_ifILb1EjEED0Ev@Base 4.3.23
 (optional=templinst)_ZN4AMQP12NumericFieldIjLc105ESt9enable_ifILb1EjEED1Ev@Base 4.3.23
 (optional=templinst)_ZN4AMQP12NumericFieldIjLc105ESt9enable_ifILb1EjEED2Ev@Base 4.3.23
 (optional=templinst)_ZN4AMQP12NumericFieldIsLc85ESt9enable_ifILb1EsEED0Ev@Base 4.3.23
 (optional=templinst)_ZN4AMQP12NumericFieldIsLc85ESt9enable_ifILb1EsEED1Ev@Base 4.3.23
 (optional=templinst)_ZN4AMQP12NumericFieldIsLc85ESt9enable_ifILb1EsEED2Ev@Base 4.3.23
 (optional=templinst)_ZN4AMQP12NumericFieldItLc117ESt9enable_ifILb1EtEED0Ev@Base 4.3.23
 (optional=templinst)_ZN4AMQP12NumericFieldItLc117ESt9enable_ifILb1EtEED1Ev@Base 4.3.23
 (optional=templinst)_ZN4AMQP12NumericFieldItLc117ESt9enable_ifILb1EtEED2Ev@Base 4.3.23
 (optional=templinst|subst|arch=i386)_ZN4AMQP12NumericFieldI{int64_t}Lc76ESt9enable_ifILb1E{int64_t}EED0Ev@Base 4.3.23
 (optional=templinst|subst|arch=i386)_ZN4AMQP12NumericFieldI{int64_t}Lc76ESt9enable_ifILb1E{int64_t}EED1Ev@Base 4.3.23
 (optional=templinst|subst|arch=i386)_ZN4AMQP12NumericFieldI{int64_t}Lc76ESt9enable_ifILb1E{int64_t}EED2Ev@Base 4.3.23
 (optional=templinst|subst|arch=i386)_ZN4AMQP12NumericFieldI{uint64_t}Lc108ESt9enable_ifILb1E{uint64_t}EED0Ev@Base 4.3.23
 (optional=templinst|subst|arch=i386)_ZN4AMQP12NumericFieldI{uint64_t}Lc108ESt9enable_ifILb1E{uint64_t}EED1Ev@Base 4.3.23
 (optional=templinst|subst|arch=i386)_ZN4AMQP12NumericFieldI{uint64_t}Lc108ESt9enable_ifILb1E{uint64_t}EED2Ev@Base 4.3.23
 (optional=templinst|subst|arch=i386)_ZN4AMQP12NumericFieldI{uint64_t}Lc84ESt9enable_ifILb1E{uint64_t}EED0Ev@Base 4.3.23
 (optional=templinst|subst|arch=i386)_ZN4AMQP12NumericFieldI{uint64_t}Lc84ESt9enable_ifILb1E{uint64_t}EED1Ev@Base 4.3.23
 (optional=templinst|subst|arch=i386)_ZN4AMQP12NumericFieldI{uint64_t}Lc84ESt9enable_ifILb1E{uint64_t}EED2Ev@Base 4.3.23
 (optional=templinst|subst|arch=i386)_ZN4AMQP12SslConnected4sendEPKc{size_t}@Base 4.3.23
 _ZN4AMQP12SslConnected5closeEv@Base 4.3.23
 _ZN4AMQP12SslConnected5writeERKNS_7MonitorE@Base 4.3.23
 _ZN4AMQP12SslConnected6repeatENS0_5StateEi@Base 4.3.23
 _ZN4AMQP12SslConnected7proceedEv@Base 4.3.23
 _ZN4AMQP12SslConnected7processERKNS_7MonitorEii@Base 4.3.23
 _ZN4AMQP12SslConnected7receiveERKNS_7MonitorE@Base 4.3.23
 (optional=templinst|subst|arch=i386)_ZN4AMQP12SslConnected8maxframeE{size_t}@Base 4.3.23
 _ZN4AMQP12SslConnectedD0Ev@Base 4.3.23
 _ZN4AMQP12SslConnectedD1Ev@Base 4.3.23
 _ZN4AMQP12SslConnectedD2Ev@Base 4.3.23
 (optional=templinst|subst|arch=i386)_ZN4AMQP12SslHandshake4sendEPKc{size_t}@Base 4.3.23
 _ZN4AMQP12SslHandshake7processERKNS_7MonitorEii@Base 4.3.23
 _ZN4AMQP12SslHandshake9nextstateERKNS_7MonitorE@Base 4.3.23
 _ZN4AMQP12SslHandshakeC1EPNS_11TcpExtStateERKNSt7__cxx1112basic_stringIcSt11char_traitsIcESaIcEEEONS_12TcpOutBufferE@Base 4.3.23
 _ZN4AMQP12SslHandshakeC2EPNS_11TcpExtStateERKNSt7__cxx1112basic_stringIcSt11char_traitsIcESaIcEEEONS_12TcpOutBufferE@Base 4.3.23
 _ZN4AMQP12SslHandshakeD0Ev@Base 4.3.23
 _ZN4AMQP12SslHandshakeD1Ev@Base 4.3.23
 _ZN4AMQP12SslHandshakeD2Ev@Base 4.3.23
 (optional=templinst|subst|arch=i386)_ZN4AMQP12TcpConnected4sendEPKc{size_t}@Base 4.3.23
 _ZN4AMQP12TcpConnected5closeEv@Base 4.3.23
 _ZN4AMQP12TcpConnected7processERKNS_7MonitorEii@Base 4.3.23
 (optional=templinst|subst|arch=i386)_ZN4AMQP12TcpConnected8maxframeE{size_t}@Base 4.3.23
 _ZN4AMQP12TcpConnectedD0Ev@Base 4.3.23
 _ZN4AMQP12TcpConnectedD1Ev@Base 4.3.23
 _ZN4AMQP12TcpConnectedD2Ev@Base 4.3.23
 _ZN4AMQP12TcpOutBuffer6sendtoEi@Base 4.3.23
 (optional=templinst|subst|arch=i386)_ZN4AMQP12TcpOutBuffer6shrinkE{size_t}@Base 4.3.23
 _ZN4AMQP13BasicAckFrame7processEPNS_14ConnectionImplE@Base 4.3.23
 _ZN4AMQP13BasicAckFrameD0Ev@Base 4.3.23
 _ZN4AMQP13BasicAckFrameD1Ev@Base 4.3.23
 _ZN4AMQP13BasicAckFrameD2Ev@Base 4.3.23
 _ZN4AMQP13BasicGetFrameD0Ev@Base 4.3.23
 _ZN4AMQP13BasicGetFrameD1Ev@Base 4.3.23
 _ZN4AMQP13BasicGetFrameD2Ev@Base 4.3.23
 _ZN4AMQP13BasicQosFrameD0Ev@Base 4.3.23
 _ZN4AMQP13BasicQosFrameD1Ev@Base 4.3.23
 _ZN4AMQP13BasicQosFrameD2Ev@Base 4.3.23
 _ZN4AMQP13DeferredQueueD0Ev@Base 4.3.23
 _ZN4AMQP13DeferredQueueD1Ev@Base 4.3.23
 _ZN4AMQP13DeferredQueueD2Ev@Base 4.3.23
 _ZN4AMQP13ReceivedFrame17processBasicFrameEPNS_14ConnectionImplE@Base 4.3.23
 _ZN4AMQP13ReceivedFrame17processQueueFrameEPNS_14ConnectionImplE@Base 4.3.23
 _ZN4AMQP13ReceivedFrame18processHeaderFrameEPNS_14ConnectionImplE@Base 4.3.23
 _ZN4AMQP13ReceivedFrame18processMethodFrameEPNS_14ConnectionImplE@Base 4.3.23
 _ZN4AMQP13ReceivedFrame19processChannelFrameEPNS_14ConnectionImplE@Base 4.3.23
 _ZN4AMQP13ReceivedFrame19processConfirmFrameEPNS_14ConnectionImplE@Base 4.3.23
 _ZN4AMQP13ReceivedFrame20processExchangeFrameEPNS_14ConnectionImplE@Base 4.3.23
 _ZN4AMQP13ReceivedFrame22processConnectionFrameEPNS_14ConnectionImplE@Base 4.3.23
 _ZN4AMQP13ReceivedFrame23processTransactionFrameEPNS_14ConnectionImplE@Base 4.3.23
 _ZN4AMQP13ReceivedFrame7processEPNS_14ConnectionImplE@Base 4.3.23
 _ZN4AMQP13ReceivedFrameC1ERKNS_6BufferEj@Base 4.3.23
 _ZN4AMQP13ReceivedFrameC2ERKNS_6BufferEj@Base 4.3.23
 _ZN4AMQP13ReceivedFrameD0Ev@Base 4.3.23
 _ZN4AMQP13ReceivedFrameD1Ev@Base 4.3.23
 _ZN4AMQP13ReceivedFrameD2Ev@Base 4.3.23
 _ZN4AMQP13ReducedBufferD0Ev@Base 4.3.23
 _ZN4AMQP13ReducedBufferD1Ev@Base 4.3.23
 _ZN4AMQP13ReducedBufferD2Ev@Base 4.3.23
 _ZN4AMQP13TcpConnection10onReceivedEPNS_8TcpStateERKNS_6BufferE@Base 4.3.23
 _ZN4AMQP13TcpConnection10onSecuringEPNS_8TcpStateEP6ssl_st@Base 4.3.23
 _ZN4AMQP13TcpConnection11onConnectedEPNS_8TcpStateE@Base 4.3.23
 _ZN4AMQP13TcpConnection11onHeartbeatEPNS_10ConnectionE@Base 4.3.23
 _ZN4AMQP13TcpConnection11onNegotiateEPNS_10ConnectionEt@Base 4.3.23
 _ZN4AMQP13TcpConnection12onPropertiesEPNS_10ConnectionERKNS_5TableERS3_@Base 4.3.23
 _ZN4AMQP13TcpConnection5closeEb@Base 4.3.23
 (optional=templinst|subst|arch=i386)_ZN4AMQP13TcpConnection6onDataEPNS_10ConnectionEPKc{size_t}@Base 4.3.23
 _ZN4AMQP13TcpConnection6onIdleEPNS_8TcpStateEii@Base 4.3.23
 _ZN4AMQP13TcpConnection6onLostEPNS_8TcpStateE@Base 4.3.23
 _ZN4AMQP13TcpConnection7onErrorEPNS_10ConnectionEPKc@Base 4.3.23
 _ZN4AMQP13TcpConnection7onErrorEPNS_8TcpStateEPKcb@Base 4.3.23
 _ZN4AMQP13TcpConnection7onReadyEPNS_10ConnectionE@Base 4.3.23
 _ZN4AMQP13TcpConnection7processEii@Base 4.3.23
 _ZN4AMQP13TcpConnection8expectedEv@Base 4.3.23
 _ZN4AMQP13TcpConnection8onClosedEPNS_10ConnectionE@Base 4.3.23
 _ZN4AMQP13TcpConnection9onSecuredEPNS_8TcpStateEPK6ssl_st@Base 4.3.23
 _ZN4AMQP13TcpConnectionC1EPNS_10TcpHandlerERKNS_7AddressE@Base 4.3.23
 _ZN4AMQP13TcpConnectionC2EPNS_10TcpHandlerERKNS_7AddressE@Base 4.3.23
 _ZN4AMQP13TcpConnectionD0Ev@Base 4.3.23
 _ZN4AMQP13TcpConnectionD1Ev@Base 4.3.23
 _ZN4AMQP13TcpConnectionD2Ev@Base 4.3.23
 _ZN4AMQP14BasicNackFrame7processEPNS_14ConnectionImplE@Base 4.3.23
 _ZN4AMQP14BasicNackFrameD0Ev@Base 4.3.23
 _ZN4AMQP14BasicNackFrameD1Ev@Base 4.3.23
 _ZN4AMQP14BasicNackFrameD2Ev@Base 4.3.23
 _ZN4AMQP14ConnectionImpl11reportErrorEPKc@Base 4.3.23
 _ZN4AMQP14ConnectionImpl3addERKSt10shared_ptrINS_11ChannelImplEE@Base 4.3.23
 _ZN4AMQP14ConnectionImpl4failEPKc@Base 4.3.23
 _ZN4AMQP14ConnectionImpl4failERKNS_7MonitorEPKc@Base 4.3.23
 _ZN4AMQP14ConnectionImpl4sendEONS_12CopiedBufferE@Base 4.3.23
 _ZN4AMQP14ConnectionImpl4sendERKNS_5FrameE@Base 4.3.23
 _ZN4AMQP14ConnectionImpl5closeEv@Base 4.3.23
 _ZN4AMQP14ConnectionImpl5parseERKNS_6BufferE@Base 4.3.23
 _ZN4AMQP14ConnectionImpl6removeEPKNS_11ChannelImplE@Base 4.3.23
 _ZN4AMQP14ConnectionImpl7channelEi@Base 4.3.23
 _ZN4AMQP14ConnectionImpl8setReadyEv@Base 4.3.23
 _ZN4AMQP14ConnectionImpl9heartbeatEv@Base 4.3.23
 _ZN4AMQP14ConnectionImpl9sendCloseEv@Base 4.3.23
 _ZN4AMQP14ConnectionImplC1EPNS_10ConnectionEPNS_17ConnectionHandlerERKNS_5LoginERKNSt7__cxx1112basic_stringIcSt11char_traitsIcESaIcEEE@Base 4.3.23
 _ZN4AMQP14ConnectionImplC2EPNS_10ConnectionEPNS_17ConnectionHandlerERKNS_5LoginERKNSt7__cxx1112basic_stringIcSt11char_traitsIcESaIcEEE@Base 4.3.23
 _ZN4AMQP14ConnectionImplD0Ev@Base 4.3.23
 _ZN4AMQP14ConnectionImplD1Ev@Base 4.3.23
 _ZN4AMQP14ConnectionImplD2Ev@Base 4.3.23
 _ZN4AMQP14DeferredCancel13reportSuccessERKNSt7__cxx1112basic_stringIcSt11char_traitsIcESaIcEEE@Base 4.3.23
 _ZN4AMQP14DeferredCancelD0Ev@Base 4.3.23
 _ZN4AMQP14DeferredCancelD1Ev@Base 4.3.23
 _ZN4AMQP14DeferredCancelD2Ev@Base 4.3.23
 _ZN4AMQP14DeferredDeleteD0Ev@Base 4.3.23
 _ZN4AMQP14DeferredDeleteD1Ev@Base 4.3.23
 _ZN4AMQP14DeferredDeleteD2Ev@Base 4.3.23
 _ZN4AMQP14DeferredRecall4lockEv@Base 4.3.23
 _ZN4AMQP14DeferredRecall7processERNS_16BasicReturnFrameE@Base 4.3.23
 _ZN4AMQP14DeferredRecall8completeEv@Base 4.3.23
 _ZN4AMQP14DeferredRecallD0Ev@Base 4.3.23
 _ZN4AMQP14DeferredRecallD1Ev@Base 4.3.23
 _ZN4AMQP14DeferredRecallD2Ev@Base 4.3.23
 _ZN4AMQP14HeartbeatFrame7processEPNS_14ConnectionImplE@Base 4.3.23
 _ZN4AMQP14HeartbeatFrameD0Ev@Base 4.3.23
 _ZN4AMQP14HeartbeatFrameD1Ev@Base 4.3.23
 _ZN4AMQP14HeartbeatFrameD2Ev@Base 4.3.23
 _ZN4AMQP14QueueBindFrameD0Ev@Base 4.3.23
 _ZN4AMQP14QueueBindFrameD1Ev@Base 4.3.23
 _ZN4AMQP14QueueBindFrameD2Ev@Base 4.3.23
 _ZN4AMQP15BasicGetOKFrame7processEPNS_14ConnectionImplE@Base 4.3.23
 _ZN4AMQP15BasicGetOKFrameD0Ev@Base 4.3.23
 _ZN4AMQP15BasicGetOKFrameD1Ev@Base 4.3.23
 _ZN4AMQP15BasicGetOKFrameD2Ev@Base 4.3.23
 _ZN4AMQP15BasicQosOKFrame7processEPNS_14ConnectionImplE@Base 4.3.23
 _ZN4AMQP15BasicQosOKFrameD0Ev@Base 4.3.23
 _ZN4AMQP15BasicQosOKFrameD1Ev@Base 4.3.23
 _ZN4AMQP15BasicQosOKFrameD2Ev@Base 4.3.23
 _ZN4AMQP15ConnectionOrderC1EPKc@Base 4.3.23
 _ZN4AMQP15ConnectionOrderC2EPKc@Base 4.3.23
 _ZN4AMQP15ConnectionOrderD0Ev@Base 4.3.23
 _ZN4AMQP15ConnectionOrderD1Ev@Base 4.3.23
 _ZN4AMQP15ConnectionOrderD2Ev@Base 4.3.23
 _ZN4AMQP15DeferredConfirm7processERNS_13BasicAckFrameE@Base 4.3.23
 _ZN4AMQP15DeferredConfirm7processERNS_14BasicNackFrameE@Base 4.3.23
 _ZN4AMQP15DeferredConfirmD0Ev@Base 4.3.23
 _ZN4AMQP15DeferredConfirmD1Ev@Base 4.3.23
 _ZN4AMQP15DeferredConfirmD2Ev@Base 4.3.23
 _ZN4AMQP15QueuePurgeFrameD0Ev@Base 4.3.23
 _ZN4AMQP15QueuePurgeFrameD1Ev@Base 4.3.23
 _ZN4AMQP15QueuePurgeFrameD2Ev@Base 4.3.23
 _ZN4AMQP15SslErrorPrinterC1Ei@Base 4.3.23
 _ZN4AMQP15SslErrorPrinterC2Ei@Base 4.3.23
 _ZN4AMQP16BasicCancelFrame7processEPNS_14ConnectionImplE@Base 4.3.23
 _ZN4AMQP16BasicCancelFrameD0Ev@Base 4.3.23
 _ZN4AMQP16BasicCancelFrameD1Ev@Base 4.3.23
 _ZN4AMQP16BasicCancelFrameD2Ev@Base 4.3.23
 _ZN4AMQP16BasicHeaderFrame7processEPNS_14ConnectionImplE@Base 4.3.23
 _ZN4AMQP16BasicHeaderFrameD0Ev@Base 4.3.23
 _ZN4AMQP16BasicHeaderFrameD1Ev@Base 4.3.23
 _ZN4AMQP16BasicHeaderFrameD2Ev@Base 4.3.23
 _ZN4AMQP16BasicRejectFrameD0Ev@Base 4.3.23
 _ZN4AMQP16BasicRejectFrameD1Ev@Base 4.3.23
 _ZN4AMQP16BasicRejectFrameD2Ev@Base 4.3.23
 _ZN4AMQP16BasicReturnFrame7processEPNS_14ConnectionImplE@Base 4.3.23
 _ZN4AMQP16BasicReturnFrameD0Ev@Base 4.3.23
 _ZN4AMQP16BasicReturnFrameD1Ev@Base 4.3.23
 _ZN4AMQP16BasicReturnFrameD2Ev@Base 4.3.23
 _ZN4AMQP16ChannelFlowFrameD0Ev@Base 4.3.23
 _ZN4AMQP16ChannelFlowFrameD1Ev@Base 4.3.23
 _ZN4AMQP16ChannelFlowFrameD2Ev@Base 4.3.23
 _ZN4AMQP16ChannelOpenFrameD0Ev@Base 4.3.23
 _ZN4AMQP16ChannelOpenFrameD1Ev@Base 4.3.23
 _ZN4AMQP16ChannelOpenFrameD2Ev@Base 4.3.23
 _ZN4AMQP16DeferredConsumer13reportSuccessERKNSt7__cxx1112basic_stringIcSt11char_traitsIcESaIcEEE@Base 4.3.23
 _ZN4AMQP16DeferredConsumer4lockEv@Base 4.3.23
 _ZN4AMQP16DeferredConsumer7processERNS_17BasicDeliverFrameE@Base 4.3.23
 _ZN4AMQP16DeferredConsumerD0Ev@Base 4.3.23
 _ZN4AMQP16DeferredConsumerD1Ev@Base 4.3.23
 _ZN4AMQP16DeferredConsumerD2Ev@Base 4.3.23
 _ZN4AMQP16DeferredReceiver10initializeERKNSt7__cxx1112basic_stringIcSt11char_traitsIcESaIcEEES8_@Base 4.3.23
 _ZN4AMQP16DeferredReceiver7processERNS_16BasicHeaderFrameE@Base 4.3.23
 _ZN4AMQP16DeferredReceiver7processERNS_9BodyFrameE@Base 4.3.23
 _ZN4AMQP16QueueBindOKFrame7processEPNS_14ConnectionImplE@Base 4.3.23
 _ZN4AMQP16QueueBindOKFrameD0Ev@Base 4.3.23
 _ZN4AMQP16QueueBindOKFrameD1Ev@Base 4.3.23
 _ZN4AMQP16QueueBindOKFrameD2Ev@Base 4.3.23
 _ZN4AMQP16QueueDeleteFrameD0Ev@Base 4.3.23
 _ZN4AMQP16QueueDeleteFrameD1Ev@Base 4.3.23
 _ZN4AMQP16QueueDeleteFrameD2Ev@Base 4.3.23
 _ZN4AMQP16QueueUnbindFrameD0Ev@Base 4.3.23
 _ZN4AMQP16QueueUnbindFrameD1Ev@Base 4.3.23
 _ZN4AMQP16QueueUnbindFrameD2Ev@Base 4.3.23
 _ZN4AMQP17BasicConsumeFrameD0Ev@Base 4.3.23
 _ZN4AMQP17BasicConsumeFrameD1Ev@Base 4.3.23
 _ZN4AMQP17BasicConsumeFrameD2Ev@Base 4.3.23
 _ZN4AMQP17BasicDeliverFrame7processEPNS_14ConnectionImplE@Base 4.3.23
 _ZN4AMQP17BasicDeliverFrameD0Ev@Base 4.3.23
 _ZN4AMQP17BasicDeliverFrameD1Ev@Base 4.3.23
 _ZN4AMQP17BasicDeliverFrameD2Ev@Base 4.3.23
 _ZN4AMQP17BasicPublishFrameD0Ev@Base 4.3.23
 _ZN4AMQP17BasicPublishFrameD1Ev@Base 4.3.23
 _ZN4AMQP17BasicPublishFrameD2Ev@Base 4.3.23
 _ZN4AMQP17BasicRecoverFrameD0Ev@Base 4.3.23
 _ZN4AMQP17BasicRecoverFrameD1Ev@Base 4.3.23
 _ZN4AMQP17BasicRecoverFrameD2Ev@Base 4.3.23
 _ZN4AMQP17ChannelCloseFrame7processEPNS_14ConnectionImplE@Base 4.3.23
 _ZN4AMQP17ChannelCloseFrameD0Ev@Base 4.3.23
 _ZN4AMQP17ChannelCloseFrameD1Ev@Base 4.3.23
 _ZN4AMQP17ChannelCloseFrameD2Ev@Base 4.3.23
 _ZN4AMQP17ConnectionHandler11onHeartbeatEPNS_10ConnectionE@Base 4.3.23
 _ZN4AMQP17ConnectionHandler11onNegotiateEPNS_10ConnectionEt@Base 4.3.23
 _ZN4AMQP17ConnectionHandler12onPropertiesEPNS_10ConnectionERKNS_5TableERS3_@Base 4.3.23
 _ZN4AMQP17ConnectionHandler7onErrorEPNS_10ConnectionEPKc@Base 4.3.23
 _ZN4AMQP17ConnectionHandler7onReadyEPNS_10ConnectionE@Base 4.3.23
 _ZN4AMQP17ConnectionHandler8onClosedEPNS_10ConnectionE@Base 4.3.23
 _ZN4AMQP17ExchangeBindFrameD0Ev@Base 4.3.23
 _ZN4AMQP17ExchangeBindFrameD1Ev@Base 4.3.23
 _ZN4AMQP17ExchangeBindFrameD2Ev@Base 4.3.23
 (optional=templinst|subst|arch=i386)_ZN4AMQP17PassthroughBuffer6appendEPKv{size_t}@Base 4.3.23
 _ZN4AMQP17PassthroughBufferD0Ev@Base 4.3.23
 _ZN4AMQP17PassthroughBufferD1Ev@Base 4.3.23
 _ZN4AMQP17PassthroughBufferD2Ev@Base 4.3.23
 _ZN4AMQP17ProtocolExceptionD0Ev@Base 4.3.23
 _ZN4AMQP17ProtocolExceptionD1Ev@Base 4.3.23
 _ZN4AMQP17ProtocolExceptionD2Ev@Base 4.3.23
 _ZN4AMQP17QueueDeclareFrameD0Ev@Base 4.3.23
 _ZN4AMQP17QueueDeclareFrameD1Ev@Base 4.3.23
 _ZN4AMQP17QueueDeclareFrameD2Ev@Base 4.3.23
 _ZN4AMQP17QueuePurgeOKFrame7processEPNS_14ConnectionImplE@Base 4.3.23
 _ZN4AMQP17QueuePurgeOKFrameD0Ev@Base 4.3.23
 _ZN4AMQP17QueuePurgeOKFrameD1Ev@Base 4.3.23
 _ZN4AMQP17QueuePurgeOKFrameD2Ev@Base 4.3.23
 _ZN4AMQP18BasicCancelOKFrame7processEPNS_14ConnectionImplE@Base 4.3.23
 _ZN4AMQP18BasicCancelOKFrameD0Ev@Base 4.3.23
 _ZN4AMQP18BasicCancelOKFrameD1Ev@Base 4.3.23
 _ZN4AMQP18BasicCancelOKFrameD2Ev@Base 4.3.23
 _ZN4AMQP18BasicGetEmptyFrame7processEPNS_14ConnectionImplE@Base 4.3.23
 _ZN4AMQP18BasicGetEmptyFrameD0Ev@Base 4.3.23
 _ZN4AMQP18BasicGetEmptyFrameD1Ev@Base 4.3.23
 _ZN4AMQP18BasicGetEmptyFrameD2Ev@Base 4.3.23
 _ZN4AMQP18ChannelFlowOKFrame7processEPNS_14ConnectionImplE@Base 4.3.23
 _ZN4AMQP18ChannelFlowOKFrameD0Ev@Base 4.3.23
 _ZN4AMQP18ChannelFlowOKFrameD1Ev@Base 4.3.23
 _ZN4AMQP18ChannelFlowOKFrameD2Ev@Base 4.3.23
 _ZN4AMQP18ChannelOpenOKFrame7processEPNS_14ConnectionImplE@Base 4.3.23
 _ZN4AMQP18ChannelOpenOKFrameD0Ev@Base 4.3.23
 _ZN4AMQP18ChannelOpenOKFrameD1Ev@Base 4.3.23
 _ZN4AMQP18ChannelOpenOKFrameD2Ev@Base 4.3.23
 _ZN4AMQP18ConfirmSelectFrameD0Ev@Base 4.3.23
 _ZN4AMQP18ConfirmSelectFrameD1Ev@Base 4.3.23
 _ZN4AMQP18ConfirmSelectFrameD2Ev@Base 4.3.23
 _ZN4AMQP18QueueDeleteOKFrame7processEPNS_14ConnectionImplE@Base 4.3.23
 _ZN4AMQP18QueueDeleteOKFrameD0Ev@Base 4.3.23
 _ZN4AMQP18QueueDeleteOKFrameD1Ev@Base 4.3.23
 _ZN4AMQP18QueueDeleteOKFrameD2Ev@Base 4.3.23
 _ZN4AMQP18QueueUnbindOKFrame7processEPNS_14ConnectionImplE@Base 4.3.23
 _ZN4AMQP18QueueUnbindOKFrameD0Ev@Base 4.3.23
 _ZN4AMQP18QueueUnbindOKFrameD1Ev@Base 4.3.23
 _ZN4AMQP18QueueUnbindOKFrameD2Ev@Base 4.3.23
 _ZN4AMQP19BasicConsumeOKFrame7processEPNS_14ConnectionImplE@Base 4.3.23
 _ZN4AMQP19BasicConsumeOKFrameD0Ev@Base 4.3.23
 _ZN4AMQP19BasicConsumeOKFrameD1Ev@Base 4.3.23
 _ZN4AMQP19BasicConsumeOKFrameD2Ev@Base 4.3.23
 _ZN4AMQP19BasicRecoverOKFrame7processEPNS_14ConnectionImplE@Base 4.3.23
 _ZN4AMQP19BasicRecoverOKFrameD0Ev@Base 4.3.23
 _ZN4AMQP19BasicRecoverOKFrameD1Ev@Base 4.3.23
 _ZN4AMQP19BasicRecoverOKFrameD2Ev@Base 4.3.23
 _ZN4AMQP19ChannelCloseOKFrame7processEPNS_14ConnectionImplE@Base 4.3.23
 _ZN4AMQP19ChannelCloseOKFrameD0Ev@Base 4.3.23
 _ZN4AMQP19ChannelCloseOKFrameD1Ev@Base 4.3.23
 _ZN4AMQP19ChannelCloseOKFrameD2Ev@Base 4.3.23
 _ZN4AMQP19ConnectionOpenFrameD0Ev@Base 4.3.23
 _ZN4AMQP19ConnectionOpenFrameD1Ev@Base 4.3.23
 _ZN4AMQP19ConnectionOpenFrameD2Ev@Base 4.3.23
 _ZN4AMQP19ConnectionTuneFrame7processEPNS_14ConnectionImplE@Base 4.3.23
 _ZN4AMQP19ConnectionTuneFrameD0Ev@Base 4.3.23
 _ZN4AMQP19ConnectionTuneFrameD1Ev@Base 4.3.23
 _ZN4AMQP19ConnectionTuneFrameD2Ev@Base 4.3.23
 _ZN4AMQP19DeferredExtReceiver10initializeERKNSt7__cxx1112basic_stringIcSt11char_traitsIcESaIcEEES8_@Base 4.3.23
 _ZN4AMQP19DeferredExtReceiver8completeEv@Base 4.3.23
 _ZN4AMQP19ExchangeBindOKFrame7processEPNS_14ConnectionImplE@Base 4.3.23
 _ZN4AMQP19ExchangeBindOKFrameD0Ev@Base 4.3.23
 _ZN4AMQP19ExchangeBindOKFrameD1Ev@Base 4.3.23
 _ZN4AMQP19ExchangeBindOKFrameD2Ev@Base 4.3.23
 _ZN4AMQP19ExchangeDeleteFrameD0Ev@Base 4.3.23
 _ZN4AMQP19ExchangeDeleteFrameD1Ev@Base 4.3.23
 _ZN4AMQP19ExchangeDeleteFrameD2Ev@Base 4.3.23
 _ZN4AMQP19ExchangeUnbindFrameD0Ev@Base 4.3.23
 _ZN4AMQP19ExchangeUnbindFrameD1Ev@Base 4.3.23
 _ZN4AMQP19ExchangeUnbindFrameD2Ev@Base 4.3.23
 _ZN4AMQP19ProtocolHeaderFrameD0Ev@Base 4.3.23
 _ZN4AMQP19ProtocolHeaderFrameD1Ev@Base 4.3.23
 _ZN4AMQP19ProtocolHeaderFrameD2Ev@Base 4.3.23
 _ZN4AMQP19QueueDeclareOKFrame7processEPNS_14ConnectionImplE@Base 4.3.23
 _ZN4AMQP19QueueDeclareOKFrameD0Ev@Base 4.3.23
 _ZN4AMQP19QueueDeclareOKFrameD1Ev@Base 4.3.23
 _ZN4AMQP19QueueDeclareOKFrameD2Ev@Base 4.3.23
 _ZN4AMQP20ConfirmSelectOKFrame7processEPNS_14ConnectionImplE@Base 4.3.23
 _ZN4AMQP20ConfirmSelectOKFrameD0Ev@Base 4.3.23
 _ZN4AMQP20ConfirmSelectOKFrameD1Ev@Base 4.3.23
 _ZN4AMQP20ConfirmSelectOKFrameD2Ev@Base 4.3.23
 _ZN4AMQP20ConnectionCloseFrame7processEPNS_14ConnectionImplE@Base 4.3.23
 _ZN4AMQP20ConnectionCloseFrameD0Ev@Base 4.3.23
 _ZN4AMQP20ConnectionCloseFrameD1Ev@Base 4.3.23
 _ZN4AMQP20ConnectionCloseFrameD2Ev@Base 4.3.23
 _ZN4AMQP20ConnectionStartFrame7processEPNS_14ConnectionImplE@Base 4.3.23
 _ZN4AMQP20ConnectionStartFrameD0Ev@Base 4.3.23
 _ZN4AMQP20ConnectionStartFrameD1Ev@Base 4.3.23
 _ZN4AMQP20ConnectionStartFrameD2Ev@Base 4.3.23
 _ZN4AMQP20ExchangeDeclareFrameD0Ev@Base 4.3.23
 _ZN4AMQP20ExchangeDeclareFrameD1Ev@Base 4.3.23
 _ZN4AMQP20ExchangeDeclareFrameD2Ev@Base 4.3.23
 _ZN4AMQP21ConnectionOpenOKFrame7processEPNS_14ConnectionImplE@Base 4.3.23
 _ZN4AMQP21ConnectionOpenOKFrameD0Ev@Base 4.3.23
 _ZN4AMQP21ConnectionOpenOKFrameD1Ev@Base 4.3.23
 _ZN4AMQP21ConnectionOpenOKFrameD2Ev@Base 4.3.23
 _ZN4AMQP21ConnectionSecureFrameD0Ev@Base 4.3.23
 _ZN4AMQP21ConnectionSecureFrameD1Ev@Base 4.3.23
 _ZN4AMQP21ConnectionSecureFrameD2Ev@Base 4.3.23
 _ZN4AMQP21ConnectionTuneOKFrameD0Ev@Base 4.3.23
 _ZN4AMQP21ConnectionTuneOKFrameD1Ev@Base 4.3.23
 _ZN4AMQP21ConnectionTuneOKFrameD2Ev@Base 4.3.23
 _ZN4AMQP21ExchangeDeleteOKFrame7processEPNS_14ConnectionImplE@Base 4.3.23
 _ZN4AMQP21ExchangeDeleteOKFrameD0Ev@Base 4.3.23
 _ZN4AMQP21ExchangeDeleteOKFrameD1Ev@Base 4.3.23
 _ZN4AMQP21ExchangeDeleteOKFrameD2Ev@Base 4.3.23
 _ZN4AMQP21ExchangeUnbindOKFrame7processEPNS_14ConnectionImplE@Base 4.3.23
 _ZN4AMQP21ExchangeUnbindOKFrameD0Ev@Base 4.3.23
 _ZN4AMQP21ExchangeUnbindOKFrameD1Ev@Base 4.3.23
 _ZN4AMQP21ExchangeUnbindOKFrameD2Ev@Base 4.3.23
 _ZN4AMQP22BasicRecoverAsyncFrameD0Ev@Base 4.3.23
 _ZN4AMQP22BasicRecoverAsyncFrameD1Ev@Base 4.3.23
 _ZN4AMQP22BasicRecoverAsyncFrameD2Ev@Base 4.3.23
 _ZN4AMQP22ConnectionCloseOKFrame7processEPNS_14ConnectionImplE@Base 4.3.23
 _ZN4AMQP22ConnectionCloseOKFrameD0Ev@Base 4.3.23
 _ZN4AMQP22ConnectionCloseOKFrameD1Ev@Base 4.3.23
 _ZN4AMQP22ConnectionCloseOKFrameD2Ev@Base 4.3.23
 _ZN4AMQP22ConnectionStartOKFrameD0Ev@Base 4.3.23
 _ZN4AMQP22ConnectionStartOKFrameD1Ev@Base 4.3.23
 _ZN4AMQP22ConnectionStartOKFrameD2Ev@Base 4.3.23
 _ZN4AMQP22ExchangeDeclareOKFrame7processEPNS_14ConnectionImplE@Base 4.3.23
 _ZN4AMQP22ExchangeDeclareOKFrameD0Ev@Base 4.3.23
 _ZN4AMQP22ExchangeDeclareOKFrameD1Ev@Base 4.3.23
 _ZN4AMQP22ExchangeDeclareOKFrameD2Ev@Base 4.3.23
 _ZN4AMQP22TransactionCommitFrameD0Ev@Base 4.3.23
 _ZN4AMQP22TransactionCommitFrameD1Ev@Base 4.3.23
 _ZN4AMQP22TransactionCommitFrameD2Ev@Base 4.3.23
 _ZN4AMQP22TransactionSelectFrameD0Ev@Base 4.3.23
 _ZN4AMQP22TransactionSelectFrameD1Ev@Base 4.3.23
 _ZN4AMQP22TransactionSelectFrameD2Ev@Base 4.3.23
 _ZN4AMQP23ConnectionSecureOKFrameD0Ev@Base 4.3.23
 _ZN4AMQP23ConnectionSecureOKFrameD1Ev@Base 4.3.23
 _ZN4AMQP23ConnectionSecureOKFrameD2Ev@Base 4.3.23
 (optional=templinst|subst|arch=i386)_ZN4AMQP23sslerrorprintercallbackEPKc{size_t}Pv@Base 4.3.23
 _ZN4AMQP24TransactionCommitOKFrame7processEPNS_14ConnectionImplE@Base 4.3.23
 _ZN4AMQP24TransactionCommitOKFrameD0Ev@Base 4.3.23
 _ZN4AMQP24TransactionCommitOKFrameD1Ev@Base 4.3.23
 _ZN4AMQP24TransactionCommitOKFrameD2Ev@Base 4.3.23
 _ZN4AMQP24TransactionRollbackFrameD0Ev@Base 4.3.23
 _ZN4AMQP24TransactionRollbackFrameD1Ev@Base 4.3.23
 _ZN4AMQP24TransactionRollbackFrameD2Ev@Base 4.3.23
 _ZN4AMQP24TransactionSelectOKFrame7processEPNS_14ConnectionImplE@Base 4.3.23
 _ZN4AMQP24TransactionSelectOKFrameD0Ev@Base 4.3.23
 _ZN4AMQP24TransactionSelectOKFrameD1Ev@Base 4.3.23
 _ZN4AMQP24TransactionSelectOKFrameD2Ev@Base 4.3.23
 _ZN4AMQP26TransactionRollbackOKFrame7processEPNS_14ConnectionImplE@Base 4.3.23
 _ZN4AMQP26TransactionRollbackOKFrameD0Ev@Base 4.3.23
 _ZN4AMQP26TransactionRollbackOKFrameD1Ev@Base 4.3.23
 _ZN4AMQP26TransactionRollbackOKFrameD2Ev@Base 4.3.23
 _ZN4AMQP4PipeD0Ev@Base 4.3.23
 _ZN4AMQP4PipeD1Ev@Base 4.3.23
 _ZN4AMQP4PipeD2Ev@Base 4.3.23
 _ZN4AMQP4PollD0Ev@Base 4.3.23
 _ZN4AMQP4PollD1Ev@Base 4.3.23
 _ZN4AMQP4PollD2Ev@Base 4.3.23
 _ZN4AMQP5Array8pop_backEv@Base 4.3.23
 _ZN4AMQP5Array9push_backERKNS_5FieldE@Base 4.3.23
 _ZN4AMQP5ArrayC1ERKS0_@Base 4.3.23
 _ZN4AMQP5ArrayC1ERNS_8InBufferE@Base 4.3.23
 _ZN4AMQP5ArrayC2ERKS0_@Base 4.3.23
 _ZN4AMQP5ArrayC2ERNS_8InBufferE@Base 4.3.23
 _ZN4AMQP5ArrayD0Ev@Base 4.3.23
 _ZN4AMQP5ArrayD1Ev@Base 4.3.23
 _ZN4AMQP5ArrayD2Ev@Base 4.3.23
 _ZN4AMQP5Field6decodeERNS_8InBufferE@Base 4.3.23
 _ZN4AMQP5Frame7processEPNS_14ConnectionImplE@Base 4.3.23
 _ZN4AMQP5LoginD0Ev@Base 4.3.23
 _ZN4AMQP5LoginD1Ev@Base 4.3.23
 _ZN4AMQP5LoginD2Ev@Base 4.3.23
 _ZN4AMQP5TableC1ERKS0_@Base 4.3.23
 _ZN4AMQP5TableC1ERNS_8InBufferE@Base 4.3.23
 _ZN4AMQP5TableC2ERKS0_@Base 4.3.23
 _ZN4AMQP5TableC2ERNS_8InBufferE@Base 4.3.23
 _ZN4AMQP5TableD0Ev@Base 4.3.23
 _ZN4AMQP5TableD1Ev@Base 4.3.23
 _ZN4AMQP5TableD2Ev@Base 4.3.23
 _ZN4AMQP5TableaSEOS0_@Base 4.3.23
 _ZN4AMQP5TableaSERKS0_@Base 4.3.23
 (arch=amd64)_ZN4AMQP5TableixB5cxx11EPKc@Base 4.3.23
 _ZN4AMQP5noackE@Base 4.3.23
 _ZN4AMQP6Tagger11reportErrorEPKc@Base 4.3.23
 (optional=templinst|subst|arch=i386)_ZN4AMQP6Tagger4sendE{uint64_t}RKNS_5FrameE@Base 4.3.23
 _ZN4AMQP6Tagger5closeEv@Base 4.3.23
 (optional=templinst|subst|arch=i386)_ZN4AMQP6Tagger5onAckE{uint64_t}b@Base 4.3.23
 (optional=templinst|subst|arch=i386)_ZN4AMQP6Tagger6onNackE{uint64_t}b@Base 4.3.23
 _ZN4AMQP6Tagger7onErrorEOSt8functionIFvPKcEE@Base 4.3.23
 _ZN4AMQP6Tagger7publishERKSt17basic_string_viewIcSt11char_traitsIcEES6_RKNS_8EnvelopeEi@Base 4.3.23
 _ZN4AMQP6TaggerC1ERNS_7ChannelE@Base 4.3.23
 _ZN4AMQP6TaggerC2ERNS_7ChannelE@Base 4.3.23
 _ZN4AMQP6TaggerD0Ev@Base 4.3.23
 _ZN4AMQP6TaggerD1Ev@Base 4.3.23
 _ZN4AMQP6TaggerD2Ev@Base 4.3.23
 _ZN4AMQP6activeE@Base 4.3.23
 _ZN4AMQP6globalE@Base 4.3.23
 _ZN4AMQP6nowaitE@Base 4.3.23
 _ZN4AMQP7ChannelC1EPNS_10ConnectionE@Base 4.3.23
 _ZN4AMQP7ChannelC2EPNS_10ConnectionE@Base 4.3.23
 _ZN4AMQP7ChannelD0Ev@Base 4.3.23
 _ZN4AMQP7ChannelD1Ev@Base 4.3.23
 _ZN4AMQP7ChannelD2Ev@Base 4.3.23
 _ZN4AMQP7MessageD0Ev@Base 4.3.23
 _ZN4AMQP7MessageD1Ev@Base 4.3.23
 _ZN4AMQP7MessageD2Ev@Base 4.3.23
 _ZN4AMQP7MonitorD0Ev@Base 4.3.23
 _ZN4AMQP7MonitorD1Ev@Base 4.3.23
 _ZN4AMQP7MonitorD2Ev@Base 4.3.23
 _ZN4AMQP7OpenSSL10SSL_set_fdEP6ssl_sti@Base 4.3.23
 _ZN4AMQP7OpenSSL10SSL_up_refEP6ssl_st@Base 4.3.23
 _ZN4AMQP7OpenSSL11SSL_CTX_newEPK13ssl_method_st@Base 4.3.23
 _ZN4AMQP7OpenSSL11SSL_pendingEPK6ssl_st@Base 4.3.23
 _ZN4AMQP7OpenSSL12SSL_CTX_ctrlEP10ssl_ctx_stilPv@Base 4.3.23
 _ZN4AMQP7OpenSSL12SSL_CTX_freeEP10ssl_ctx_st@Base 4.3.23
 _ZN4AMQP7OpenSSL12SSL_shutdownEP6ssl_st@Base 4.3.23
 _ZN4AMQP7OpenSSL13SSL_get_errorEPK6ssl_sti@Base 4.3.23
 _ZN4AMQP7OpenSSL15ERR_clear_errorEv@Base 4.3.23
 _ZN4AMQP7OpenSSL16SSL_do_handshakeEP6ssl_st@Base 4.3.23
 _ZN4AMQP7OpenSSL16SSL_get_shutdownEPK6ssl_st@Base 4.3.23
 _ZN4AMQP7OpenSSL17TLS_client_methodEv@Base 4.3.23
 (optional=templinst|subst|arch=i386)_ZN4AMQP7OpenSSL19ERR_print_errors_cbEPFiPKc{size_t}PvES3_@Base 4.3.23
 _ZN4AMQP7OpenSSL21SSL_set_connect_stateEP6ssl_st@Base 4.3.23
 _ZN4AMQP7OpenSSL24SSL_use_certificate_fileEP6ssl_stPKci@Base 4.3.23
 _ZN4AMQP7OpenSSL32SSL_CTX_set_default_verify_pathsEP10ssl_ctx_st@Base 4.3.23
 _ZN4AMQP7OpenSSL5validEv@Base 4.3.23
 _ZN4AMQP7OpenSSL7SSL_newEP10ssl_ctx_st@Base 4.3.23
 _ZN4AMQP7OpenSSL8SSL_ctrlEP6ssl_stilPv@Base 4.3.23
 _ZN4AMQP7OpenSSL8SSL_freeEP6ssl_st@Base 4.3.23
 _ZN4AMQP7OpenSSL8SSL_readEP6ssl_stPvi@Base 4.3.23
 _ZN4AMQP7OpenSSL9SSL_writeEP6ssl_stPKvi@Base 4.3.23
 _ZN4AMQP7durableE@Base 4.3.23
 _ZN4AMQP7ifemptyE@Base 4.3.23
 _ZN4AMQP7nolocalE@Base 4.3.23
 _ZN4AMQP7opensslEPv@Base 4.3.23
 _ZN4AMQP7passiveE@Base 4.3.23
 _ZN4AMQP7requeueE@Base 4.3.23
 _ZN4AMQP8Deferred13reportSuccessERKNSt7__cxx1112basic_stringIcSt11char_traitsIcESaIcEEE@Base 4.3.23
 (optional=templinst|subst|arch=i386)_ZN4AMQP8Deferred13reportSuccessEj{uint64_t}b@Base 4.3.23
 _ZN4AMQP8DeferredD0Ev@Base 4.3.23
 _ZN4AMQP8DeferredD1Ev@Base 4.3.23
 _ZN4AMQP8DeferredD2Ev@Base 4.3.23
 _ZN4AMQP8EnvelopeD0Ev@Base 4.3.23
 _ZN4AMQP8EnvelopeD1Ev@Base 4.3.23
 _ZN4AMQP8EnvelopeD2Ev@Base 4.3.23
 (optional=templinst)_ZN4AMQP8FunctionIFP10ssl_ctx_stPK13ssl_method_stEED0Ev@Base 4.3.23
 (optional=templinst)_ZN4AMQP8FunctionIFP10ssl_ctx_stPK13ssl_method_stEED1Ev@Base 4.3.23
 (optional=templinst)_ZN4AMQP8FunctionIFP10ssl_ctx_stPK13ssl_method_stEED2Ev@Base 4.3.23
 (optional=templinst)_ZN4AMQP8FunctionIFP6ssl_stP10ssl_ctx_stEED0Ev@Base 4.3.23
 (optional=templinst)_ZN4AMQP8FunctionIFP6ssl_stP10ssl_ctx_stEED1Ev@Base 4.3.23
 (optional=templinst)_ZN4AMQP8FunctionIFP6ssl_stP10ssl_ctx_stEED2Ev@Base 4.3.23
 (optional=templinst)_ZN4AMQP8FunctionIFPK13ssl_method_stvEED0Ev@Base 4.3.23
 (optional=templinst)_ZN4AMQP8FunctionIFPK13ssl_method_stvEED1Ev@Base 4.3.23
 (optional=templinst)_ZN4AMQP8FunctionIFPK13ssl_method_stvEED2Ev@Base 4.3.23
 (optional=templinst)_ZN4AMQP8FunctionIFiP10ssl_ctx_stEED0Ev@Base 4.3.23
 (optional=templinst)_ZN4AMQP8FunctionIFiP10ssl_ctx_stEED1Ev@Base 4.3.23
 (optional=templinst)_ZN4AMQP8FunctionIFiP10ssl_ctx_stEED2Ev@Base 4.3.23
 (optional=templinst)_ZN4AMQP8FunctionIFiP6ssl_stEED0Ev@Base 4.3.23
 (optional=templinst)_ZN4AMQP8FunctionIFiP6ssl_stEED1Ev@Base 4.3.23
 (optional=templinst)_ZN4AMQP8FunctionIFiP6ssl_stEED2Ev@Base 4.3.23
 (optional=templinst)_ZN4AMQP8FunctionIFiP6ssl_stPKciEED0Ev@Base 4.3.23
 (optional=templinst)_ZN4AMQP8FunctionIFiP6ssl_stPKciEED1Ev@Base 4.3.23
 (optional=templinst)_ZN4AMQP8FunctionIFiP6ssl_stPKciEED2Ev@Base 4.3.23
 (optional=templinst)_ZN4AMQP8FunctionIFiP6ssl_stPKviEED0Ev@Base 4.3.23
 (optional=templinst)_ZN4AMQP8FunctionIFiP6ssl_stPKviEED1Ev@Base 4.3.23
 (optional=templinst)_ZN4AMQP8FunctionIFiP6ssl_stPKviEED2Ev@Base 4.3.23
 (optional=templinst)_ZN4AMQP8FunctionIFiP6ssl_stPviEED0Ev@Base 4.3.23
 (optional=templinst)_ZN4AMQP8FunctionIFiP6ssl_stPviEED1Ev@Base 4.3.23
 (optional=templinst)_ZN4AMQP8FunctionIFiP6ssl_stPviEED2Ev@Base 4.3.23
 (optional=templinst)_ZN4AMQP8FunctionIFiP6ssl_stiEED0Ev@Base 4.3.23
 (optional=templinst)_ZN4AMQP8FunctionIFiP6ssl_stiEED1Ev@Base 4.3.23
 (optional=templinst)_ZN4AMQP8FunctionIFiP6ssl_stiEED2Ev@Base 4.3.23
 (optional=templinst)_ZN4AMQP8FunctionIFiPK6ssl_stEED0Ev@Base 4.3.23
 (optional=templinst)_ZN4AMQP8FunctionIFiPK6ssl_stEED1Ev@Base 4.3.23
 (optional=templinst)_ZN4AMQP8FunctionIFiPK6ssl_stEED2Ev@Base 4.3.23
 (optional=templinst)_ZN4AMQP8FunctionIFiPK6ssl_stiEED0Ev@Base 4.3.23
 (optional=templinst)_ZN4AMQP8FunctionIFiPK6ssl_stiEED1Ev@Base 4.3.23
 (optional=templinst)_ZN4AMQP8FunctionIFiPK6ssl_stiEED2Ev@Base 4.3.23
 (optional=templinst)_ZN4AMQP8FunctionIFlP10ssl_ctx_stilPvEED0Ev@Base 4.3.23
 (optional=templinst)_ZN4AMQP8FunctionIFlP10ssl_ctx_stilPvEED1Ev@Base 4.3.23
 (optional=templinst)_ZN4AMQP8FunctionIFlP10ssl_ctx_stilPvEED2Ev@Base 4.3.23
 (optional=templinst)_ZN4AMQP8FunctionIFlP6ssl_stilPvEED0Ev@Base 4.3.23
 (optional=templinst)_ZN4AMQP8FunctionIFlP6ssl_stilPvEED1Ev@Base 4.3.23
 (optional=templinst)_ZN4AMQP8FunctionIFlP6ssl_stilPvEED2Ev@Base 4.3.23
 (optional=templinst)_ZN4AMQP8FunctionIFvP10ssl_ctx_stEED0Ev@Base 4.3.23
 (optional=templinst)_ZN4AMQP8FunctionIFvP10ssl_ctx_stEED1Ev@Base 4.3.23
 (optional=templinst)_ZN4AMQP8FunctionIFvP10ssl_ctx_stEED2Ev@Base 4.3.23
 (optional=templinst)_ZN4AMQP8FunctionIFvP6ssl_stEED0Ev@Base 4.3.23
 (optional=templinst)_ZN4AMQP8FunctionIFvP6ssl_stEED1Ev@Base 4.3.23
 (optional=templinst)_ZN4AMQP8FunctionIFvP6ssl_stEED2Ev@Base 4.3.23
 (optional=templinst|subst|arch=i386)_ZN4AMQP8FunctionIFvPFiPKc{size_t}PvES3_EED0Ev@Base 4.3.23
 (optional=templinst|subst|arch=i386)_ZN4AMQP8FunctionIFvPFiPKc{size_t}PvES3_EED1Ev@Base 4.3.23
 (optional=templinst|subst|arch=i386)_ZN4AMQP8FunctionIFvPFiPKc{size_t}PvES3_EED2Ev@Base 4.3.23
 (optional=templinst)_ZN4AMQP8FunctionIFvvEED0Ev@Base 4.3.23
 (optional=templinst)_ZN4AMQP8FunctionIFvvEED1Ev@Base 4.3.23
 (optional=templinst)_ZN4AMQP8FunctionIFvvEED2Ev@Base 4.3.23
 _ZN4AMQP8InBuffer10nextDoubleEv@Base 4.3.23
 _ZN4AMQP8InBuffer10nextUint16Ev@Base 4.3.23
 _ZN4AMQP8InBuffer10nextUint32Ev@Base 4.3.23
 _ZN4AMQP8InBuffer10nextUint64Ev@Base 4.3.23
 (optional=templinst|subst|arch=i386)_ZN4AMQP8InBuffer8nextDataE{size_t}@Base 4.3.23
 _ZN4AMQP8InBuffer8nextInt8Ev@Base 4.3.23
 _ZN4AMQP8InBuffer9nextFloatEv@Base 4.3.23
 _ZN4AMQP8InBuffer9nextInt16Ev@Base 4.3.23
 _ZN4AMQP8InBuffer9nextInt32Ev@Base 4.3.23
 _ZN4AMQP8InBuffer9nextInt64Ev@Base 4.3.23
 _ZN4AMQP8InBuffer9nextUint8Ev@Base 4.3.23
 _ZN4AMQP8MetaDataC1ERKS0_@Base 4.3.23
 _ZN4AMQP8MetaDataC1ERNS_8InBufferE@Base 4.3.23
 _ZN4AMQP8MetaDataC2ERKS0_@Base 4.3.23
 _ZN4AMQP8MetaDataC2ERNS_8InBufferE@Base 4.3.23
 _ZN4AMQP8MetaDataD0Ev@Base 4.3.23
 _ZN4AMQP8MetaDataD1Ev@Base 4.3.23
 _ZN4AMQP8MetaDataD2Ev@Base 4.3.23
 (optional=templinst|subst|arch=i386)_ZN4AMQP8TcpState4sendEPKc{size_t}@Base 4.3.23
 _ZN4AMQP8TcpState5closeEv@Base 4.3.23
 _ZN4AMQP8TcpState7processERKNS_7MonitorEii@Base 4.3.23
 (optional=templinst|subst|arch=i386)_ZN4AMQP8TcpState8maxframeE{size_t}@Base 4.3.23
 _ZN4AMQP8Throttle11reportErrorEPKc@Base 4.3.23
 (optional=templinst|subst|arch=i386)_ZN4AMQP8Throttle4sendE{uint64_t}RKNS_5FrameE@Base 4.3.23
 (optional=templinst|subst|arch=i386)_ZN4AMQP8Throttle5flushE{size_t}@Base 4.3.23
 (optional=templinst|subst|arch=i386)_ZN4AMQP8Throttle5onAckE{uint64_t}b@Base 4.3.23
 (optional=templinst|subst|arch=i386)_ZN4AMQP8Throttle6onNackE{uint64_t}b@Base 4.3.23
 (optional=templinst|subst|arch=i386)_ZN4AMQP8ThrottleC1ERNS_7ChannelE{size_t}@Base 4.3.23
 (optional=templinst|subst|arch=i386)_ZN4AMQP8ThrottleC2ERNS_7ChannelE{size_t}@Base 4.3.23
 _ZN4AMQP8ThrottleD0Ev@Base 4.3.23
 _ZN4AMQP8ThrottleD1Ev@Base 4.3.23
 _ZN4AMQP8ThrottleD2Ev@Base 4.3.23
 _ZN4AMQP8ifunusedE@Base 4.3.23
 _ZN4AMQP8internalE@Base 4.3.23
 _ZN4AMQP8multipleE@Base 4.3.23
 _ZN4AMQP8readableE@Base 4.3.23
 _ZN4AMQP8writableE@Base 4.3.23
 _ZN4AMQP9BodyFrame7processEPNS_14ConnectionImplE@Base 4.3.23
 _ZN4AMQP9BodyFrameD0Ev@Base 4.3.23
 _ZN4AMQP9BodyFrameD1Ev@Base 4.3.23
 _ZN4AMQP9BodyFrameD2Ev@Base 4.3.23
 _ZN4AMQP9ExceptionD0Ev@Base 4.3.23
 _ZN4AMQP9ExceptionD1Ev@Base 4.3.23
 _ZN4AMQP9ExceptionD2Ev@Base 4.3.23
 _ZN4AMQP9TcpClosedD0Ev@Base 4.3.23
 _ZN4AMQP9TcpClosedD1Ev@Base 4.3.23
 _ZN4AMQP9TcpClosedD2Ev@Base 4.3.23
 _ZN4AMQP9VoidFieldD0Ev@Base 4.3.23
 _ZN4AMQP9VoidFieldD1Ev@Base 4.3.23
 _ZN4AMQP9VoidFieldD2Ev@Base 4.3.23
 _ZN4AMQP9WatchableD0Ev@Base 4.3.23
 _ZN4AMQP9WatchableD1Ev@Base 4.3.23
 _ZN4AMQP9WatchableD2Ev@Base 4.3.23
 _ZN4AMQP9exclusiveE@Base 4.3.23
 _ZN4AMQP9immediateE@Base 4.3.23
 _ZN4AMQP9mandatoryE@Base 4.3.23
 (optional=templinst)_ZN4AMQP9stack_ptrINS_7MessageEE9constructIJRKNSt7__cxx1112basic_stringIcSt11char_traitsIcESaIcEEESB_EEEvDpOT_@Base 4.3.23
 _ZNK4AMQP10BasicFrame7classIDEv@Base 4.3.23
 ZNK4AMQP10BooleanSet4fillERNS_9OutBufferE@Base 4.3.23
 _ZNK4AMQP10BooleanSet4sizeEv@Base 4.3.23
 _ZNK4AMQP10BooleanSet5cloneEv@Base 4.3.23
 _ZNK4AMQP10BooleanSet6outputERSo@Base 4.3.23
 _ZNK4AMQP10BooleanSet6typeIDEv@Base 4.3.23
 _ZNK4AMQP10BooleanSet9isBooleanEv@Base 4.3.23
 (optional=templinst|subst|arch=i386)_ZNK4AMQP10ByteBuffer4byteE{size_t}@Base 4.3.23
 (optional=templinst|subst|arch=i386)_ZNK4AMQP10ByteBuffer4copyE{size_t}{size_t}Pv@Base 4.3.23
 (optional=templinst|subst|arch=i386)_ZNK4AMQP10ByteBuffer4dataE{size_t}{size_t}@Base 4.3.23
 _ZNK4AMQP10ByteBuffer4sizeEv@Base 4.3.23
 _ZNK4AMQP10QueueFrame7classIDEv@Base 4.3.23
 _ZNK4AMQP11ChannelImpl10maxPayloadEv@Base 4.3.23
 _ZNK4AMQP11ChannelImpl8consumerERKNSt7__cxx1112basic_stringIcSt11char_traitsIcESaIcEEE@Base 4.3.23
 _ZNK4AMQP11DeferredGet13reportSuccessEv@Base 4.3.23
 _ZNK4AMQP11HeaderFrame4typeEv@Base 4.3.23
 _ZNK4AMQP11MethodFrame11synchronousEv@Base 4.3.23
 _ZNK4AMQP11MethodFrame4fillERNS_9OutBufferE@Base 4.3.23
 _ZNK4AMQP11MethodFrame4typeEv@Base 4.3.23
 (optional=templinst)_ZNK4AMQP11StringFieldINS_12NumericFieldIhLc66ESt9enable_ifILb1EhEEELc115EE4fillERNS_9OutBufferE@Base 4.3.23
 (optional=templinst)_ZNK4AMQP11StringFieldINS_12NumericFieldIhLc66ESt9enable_ifILb1EhEEELc115EE4sizeEv@Base 4.3.23
 (optional=templinst)_ZNK4AMQP11StringFieldINS_12NumericFieldIhLc66ESt9enable_ifILb1EhEEELc115EE5cloneEv@Base 4.3.23
 (optional=templinst)_ZNK4AMQP11StringFieldINS_12NumericFieldIhLc66ESt9enable_ifILb1EhEEELc115EE6outputERSo@Base 4.3.23
 (optional=templinst)_ZNK4AMQP11StringFieldINS_12NumericFieldIhLc66ESt9enable_ifILb1EhEEELc115EE6typeIDEv@Base 4.3.23
 (optional=templinst)_ZNK4AMQP11StringFieldINS_12NumericFieldIhLc66ESt9enable_ifILb1EhEEELc115EE8isStringEv@Base 4.3.23
 (optional=templinst)_ZNK4AMQP11StringFieldINS_12NumericFieldIhLc66ESt9enable_ifILb1EhEEELc115EEcvRKNSt7__cxx1112basic_stringIcSt11char_traitsIcESaIcEEEEv@Base 4.3.23
 (optional=templinst)_ZNK4AMQP11StringFieldINS_12NumericFieldIjLc105ESt9enable_ifILb1EjEEELc83EE4fillERNS_9OutBufferE@Base 4.3.23
 (optional=templinst)_ZNK4AMQP11StringFieldINS_12NumericFieldIjLc105ESt9enable_ifILb1EjEEELc83EE4sizeEv@Base 4.3.23
 (optional=templinst)_ZNK4AMQP11StringFieldINS_12NumericFieldIjLc105ESt9enable_ifILb1EjEEELc83EE5cloneEv@Base 4.3.23
 (optional=templinst)_ZNK4AMQP11StringFieldINS_12NumericFieldIjLc105ESt9enable_ifILb1EjEEELc83EE6outputERSo@Base 4.3.23
 (optional=templinst)_ZNK4AMQP11StringFieldINS_12NumericFieldIjLc105ESt9enable_ifILb1EjEEELc83EE6typeIDEv@Base 4.3.23
 (optional=templinst)_ZNK4AMQP11StringFieldINS_12NumericFieldIjLc105ESt9enable_ifILb1EjEEELc83EE8isStringEv@Base 4.3.23
 (optional=templinst)_ZNK4AMQP11StringFieldINS_12NumericFieldIjLc105ESt9enable_ifILb1EjEEELc83EEcvRKNSt7__cxx1112basic_stringIcSt11char_traitsIcESaIcEEEEv@Base 4.3.23
 _ZNK4AMQP11TcpExtState6filenoEv@Base 4.3.23
 _ZNK4AMQP11TcpResolver6queuedEv@Base 4.3.23
 _ZNK4AMQP12ChannelFrame7classIDEv@Base 4.3.23
 _ZNK4AMQP12ConfirmFrame7classIDEv@Base 4.3.23
 _ZNK4AMQP12DecimalField4fillERNS_9OutBufferE@Base 4.3.23
 _ZNK4AMQP12DecimalField4sizeEv@Base 4.3.23
 _ZNK4AMQP12DecimalField5cloneEv@Base 4.3.23
 _ZNK4AMQP12DecimalField6outputERSo@Base 4.3.23
 _ZNK4AMQP12DecimalField6typeIDEv@Base 4.3.23
 _ZNK4AMQP12DecimalField9isDecimalEv@Base 4.3.23
 _ZNK4AMQP12DecimalFieldcvdEv@Base 4.3.23
 _ZNK4AMQP12DecimalFieldcvfEv@Base 4.3.23
 (optional=templinst)_ZNK4AMQP12NumericFieldIaLc98ESt9enable_ifILb1EaEE4fillERNS_9OutBufferE@Base 4.3.23
 (optional=templinst)_ZNK4AMQP12NumericFieldIaLc98ESt9enable_ifILb1EaEE4sizeEv@Base 4.3.23
 (optional=templinst)_ZNK4AMQP12NumericFieldIaLc98ESt9enable_ifILb1EaEE5cloneEv@Base 4.3.23
 (optional=templinst)_ZNK4AMQP12NumericFieldIaLc98ESt9enable_ifILb1EaEE6outputERSo@Base 4.3.23
 (optional=templinst)_ZNK4AMQP12NumericFieldIaLc98ESt9enable_ifILb1EaEE6typeIDEv@Base 4.3.23
 (optional=templinst)_ZNK4AMQP12NumericFieldIaLc98ESt9enable_ifILb1EaEE9isIntegerEv@Base 4.3.23
 (optional=templinst)_ZNK4AMQP12NumericFieldIaLc98ESt9enable_ifILb1EaEEcvaEv@Base 4.3.23
 _ZNK4AMQP12NumericFieldIaLc98ESt9enable_ifILb1EaEEcvdEv@Base 4.3.23
 _ZNK4AMQP12NumericFieldIaLc98ESt9enable_ifILb1EaEEcvfEv@Base 4.3.23
 (optional=templinst)_ZNK4AMQP12NumericFieldIaLc98ESt9enable_ifILb1EaEEcvhEv@Base 4.3.23
 _ZNK4AMQP12NumericFieldIaLc98ESt9enable_ifILb1EaEEcviEv@Base 4.3.23
 (optional=templinst)_ZNK4AMQP12NumericFieldIaLc98ESt9enable_ifILb1EaEEcvjEv@Base 4.3.23
 _ZNK4AMQP12NumericFieldIaLc98ESt9enable_ifILb1EaEEcvsEv@Base 4.3.23
 (optional=templinst)_ZNK4AMQP12NumericFieldIaLc98ESt9enable_ifILb1EaEEcvtEv@Base 4.3.23
 (optional=templinst|subst|arch=i386)_ZNK4AMQP12NumericFieldIaLc98ESt9enable_ifILb1EaEEcv{int64_t}Ev@Base 4.3.23
 (optional=templinst|subst|arch=i386)_ZNK4AMQP12NumericFieldIaLc98ESt9enable_ifILb1EaEEcv{uint64_t}Ev@Base 4.3.23
 (optional=templinst)_ZNK4AMQP12NumericFieldIdLc100ESt9enable_ifILb1EdEE4fillERNS_9OutBufferE@Base 4.3.23
 (optional=templinst)_ZNK4AMQP12NumericFieldIdLc100ESt9enable_ifILb1EdEE4sizeEv@Base 4.3.23
 (optional=templinst)_ZNK4AMQP12NumericFieldIdLc100ESt9enable_ifILb1EdEE5cloneEv@Base 4.3.23
 (optional=templinst)_ZNK4AMQP12NumericFieldIdLc100ESt9enable_ifILb1EdEE6outputERSo@Base 4.3.23
 (optional=templinst)_ZNK4AMQP12NumericFieldIdLc100ESt9enable_ifILb1EdEE6typeIDEv@Base 4.3.23
 (optional=templinst)_ZNK4AMQP12NumericFieldIdLc100ESt9enable_ifILb1EdEE9isIntegerEv@Base 4.3.23
 (optional=templinst)_ZNK4AMQP12NumericFieldIdLc100ESt9enable_ifILb1EdEEcvaEv@Base 4.3.23
 _ZNK4AMQP12NumericFieldIdLc100ESt9enable_ifILb1EdEEcvdEv@Base 4.3.23
 _ZNK4AMQP12NumericFieldIdLc100ESt9enable_ifILb1EdEEcvfEv@Base 4.3.23
 (optional=templinst)_ZNK4AMQP12NumericFieldIdLc100ESt9enable_ifILb1EdEEcvhEv@Base 4.3.23
 _ZNK4AMQP12NumericFieldIdLc100ESt9enable_ifILb1EdEEcviEv@Base 4.3.23
 (optional=templinst)_ZNK4AMQP12NumericFieldIdLc100ESt9enable_ifILb1EdEEcvjEv@Base 4.3.23
 _ZNK4AMQP12NumericFieldIdLc100ESt9enable_ifILb1EdEEcvsEv@Base 4.3.23
 (optional=templinst)_ZNK4AMQP12NumericFieldIdLc100ESt9enable_ifILb1EdEEcvtEv@Base 4.3.23
 (optional=templinst|subst|arch=i386)_ZNK4AMQP12NumericFieldIdLc100ESt9enable_ifILb1EdEEcv{int64_t}Ev@Base 4.3.23
 (optional=templinst|subst|arch=i386)_ZNK4AMQP12NumericFieldIdLc100ESt9enable_ifILb1EdEEcv{uint64_t}Ev@Base 4.3.23
 (optional=templinst)_ZNK4AMQP12NumericFieldIfLc102ESt9enable_ifILb1EfEE4fillERNS_9OutBufferE@Base 4.3.23
 (optional=templinst)_ZNK4AMQP12NumericFieldIfLc102ESt9enable_ifILb1EfEE4sizeEv@Base 4.3.23
 (optional=templinst)_ZNK4AMQP12NumericFieldIfLc102ESt9enable_ifILb1EfEE5cloneEv@Base 4.3.23
 (optional=templinst)_ZNK4AMQP12NumericFieldIfLc102ESt9enable_ifILb1EfEE6outputERSo@Base 4.3.23
 (optional=templinst)_ZNK4AMQP12NumericFieldIfLc102ESt9enable_ifILb1EfEE6typeIDEv@Base 4.3.23
 (optional=templinst)_ZNK4AMQP12NumericFieldIfLc102ESt9enable_ifILb1EfEE9isIntegerEv@Base 4.3.23
 (optional=templinst)_ZNK4AMQP12NumericFieldIfLc102ESt9enable_ifILb1EfEEcvaEv@Base 4.3.23
 _ZNK4AMQP12NumericFieldIfLc102ESt9enable_ifILb1EfEEcvdEv@Base 4.3.23
 _ZNK4AMQP12NumericFieldIfLc102ESt9enable_ifILb1EfEEcvfEv@Base 4.3.23
 (optional=templinst)_ZNK4AMQP12NumericFieldIfLc102ESt9enable_ifILb1EfEEcvhEv@Base 4.3.23
 _ZNK4AMQP12NumericFieldIfLc102ESt9enable_ifILb1EfEEcviEv@Base 4.3.23
 (optional=templinst)_ZNK4AMQP12NumericFieldIfLc102ESt9enable_ifILb1EfEEcvjEv@Base 4.3.23
 _ZNK4AMQP12NumericFieldIfLc102ESt9enable_ifILb1EfEEcvsEv@Base 4.3.23
 (optional=templinst)_ZNK4AMQP12NumericFieldIfLc102ESt9enable_ifILb1EfEEcvtEv@Base 4.3.23
 (optional=templinst|subst|arch=i386)_ZNK4AMQP12NumericFieldIfLc102ESt9enable_ifILb1EfEEcv{int64_t}Ev@Base 4.3.23
 (optional=templinst|subst|arch=i386)_ZNK4AMQP12NumericFieldIfLc102ESt9enable_ifILb1EfEEcv{uint64_t}Ev@Base 4.3.23
 (optional=templinst)_ZNK4AMQP12NumericFieldIhLc66ESt9enable_ifILb1EhEE4fillERNS_9OutBufferE@Base 4.3.23
 (optional=templinst)_ZNK4AMQP12NumericFieldIhLc66ESt9enable_ifILb1EhEE4sizeEv@Base 4.3.23
 (optional=templinst)_ZNK4AMQP12NumericFieldIhLc66ESt9enable_ifILb1EhEE5cloneEv@Base 4.3.23
 (optional=templinst)_ZNK4AMQP12NumericFieldIhLc66ESt9enable_ifILb1EhEE6outputERSo@Base 4.3.23
 (optional=templinst)_ZNK4AMQP12NumericFieldIhLc66ESt9enable_ifILb1EhEE6typeIDEv@Base 4.3.23
 (optional=templinst)_ZNK4AMQP12NumericFieldIhLc66ESt9enable_ifILb1EhEE9isIntegerEv@Base 4.3.23
 (optional=templinst)_ZNK4AMQP12NumericFieldIhLc66ESt9enable_ifILb1EhEEcvaEv@Base 4.3.23
 _ZNK4AMQP12NumericFieldIhLc66ESt9enable_ifILb1EhEEcvdEv@Base 4.3.23
 _ZNK4AMQP12NumericFieldIhLc66ESt9enable_ifILb1EhEEcvfEv@Base 4.3.23
 (optional=templinst)_ZNK4AMQP12NumericFieldIhLc66ESt9enable_ifILb1EhEEcvhEv@Base 4.3.23
 _ZNK4AMQP12NumericFieldIhLc66ESt9enable_ifILb1EhEEcviEv@Base 4.3.23
 (optional=templinst)_ZNK4AMQP12NumericFieldIhLc66ESt9enable_ifILb1EhEEcvjEv@Base 4.3.23
 _ZNK4AMQP12NumericFieldIhLc66ESt9enable_ifILb1EhEEcvsEv@Base 4.3.23
 (optional=templinst)_ZNK4AMQP12NumericFieldIhLc66ESt9enable_ifILb1EhEEcvtEv@Base 4.3.23
 (optional=templinst|subst|arch=i386)_ZNK4AMQP12NumericFieldIhLc66ESt9enable_ifILb1EhEEcv{int64_t}Ev@Base 4.3.23
 (optional=templinst|subst|arch=i386)_ZNK4AMQP12NumericFieldIhLc66ESt9enable_ifILb1EhEEcv{uint64_t}Ev@Base 4.3.23
 (optional=templinst)_ZNK4AMQP12NumericFieldIiLc73ESt9enable_ifILb1EiEE4fillERNS_9OutBufferE@Base 4.3.23
 (optional=templinst)_ZNK4AMQP12NumericFieldIiLc73ESt9enable_ifILb1EiEE4sizeEv@Base 4.3.23
 (optional=templinst)_ZNK4AMQP12NumericFieldIiLc73ESt9enable_ifILb1EiEE5cloneEv@Base 4.3.23
 (optional=templinst)_ZNK4AMQP12NumericFieldIiLc73ESt9enable_ifILb1EiEE6outputERSo@Base 4.3.23
 (optional=templinst)_ZNK4AMQP12NumericFieldIiLc73ESt9enable_ifILb1EiEE6typeIDEv@Base 4.3.23
 (optional=templinst)_ZNK4AMQP12NumericFieldIiLc73ESt9enable_ifILb1EiEE9isIntegerEv@Base 4.3.23
 (optional=templinst)_ZNK4AMQP12NumericFieldIiLc73ESt9enable_ifILb1EiEEcvaEv@Base 4.3.23
 _ZNK4AMQP12NumericFieldIiLc73ESt9enable_ifILb1EiEEcvdEv@Base 4.3.23
 _ZNK4AMQP12NumericFieldIiLc73ESt9enable_ifILb1EiEEcvfEv@Base 4.3.23
 (optional=templinst)_ZNK4AMQP12NumericFieldIiLc73ESt9enable_ifILb1EiEEcvhEv@Base 4.3.23
 _ZNK4AMQP12NumericFieldIiLc73ESt9enable_ifILb1EiEEcviEv@Base 4.3.23
 (optional=templinst)_ZNK4AMQP12NumericFieldIiLc73ESt9enable_ifILb1EiEEcvjEv@Base 4.3.23
 _ZNK4AMQP12NumericFieldIiLc73ESt9enable_ifILb1EiEEcvsEv@Base 4.3.23
 (optional=templinst)_ZNK4AMQP12NumericFieldIiLc73ESt9enable_ifILb1EiEEcvtEv@Base 4.3.23
 (optional=templinst|subst|arch=i386)_ZNK4AMQP12NumericFieldIiLc73ESt9enable_ifILb1EiEEcv{int64_t}Ev@Base 4.3.23
 (optional=templinst|subst|arch=i386)_ZNK4AMQP12NumericFieldIiLc73ESt9enable_ifILb1EiEEcv{uint64_t}Ev@Base 4.3.23
 (optional=templinst)_ZNK4AMQP12NumericFieldIjLc105ESt9enable_ifILb1EjEE4fillERNS_9OutBufferE@Base 4.3.23
 (optional=templinst)_ZNK4AMQP12NumericFieldIjLc105ESt9enable_ifILb1EjEE4sizeEv@Base 4.3.23
 (optional=templinst)_ZNK4AMQP12NumericFieldIjLc105ESt9enable_ifILb1EjEE5cloneEv@Base 4.3.23
 (optional=templinst)_ZNK4AMQP12NumericFieldIjLc105ESt9enable_ifILb1EjEE6outputERSo@Base 4.3.23
 (optional=templinst)_ZNK4AMQP12NumericFieldIjLc105ESt9enable_ifILb1EjEE6typeIDEv@Base 4.3.23
 (optional=templinst)_ZNK4AMQP12NumericFieldIjLc105ESt9enable_ifILb1EjEE9isIntegerEv@Base 4.3.23
 (optional=templinst)_ZNK4AMQP12NumericFieldIjLc105ESt9enable_ifILb1EjEEcvaEv@Base 4.3.23
 _ZNK4AMQP12NumericFieldIjLc105ESt9enable_ifILb1EjEEcvdEv@Base 4.3.23
 _ZNK4AMQP12NumericFieldIjLc105ESt9enable_ifILb1EjEEcvfEv@Base 4.3.23
 (optional=templinst)_ZNK4AMQP12NumericFieldIjLc105ESt9enable_ifILb1EjEEcvhEv@Base 4.3.23
 _ZNK4AMQP12NumericFieldIjLc105ESt9enable_ifILb1EjEEcviEv@Base 4.3.23
 (optional=templinst)_ZNK4AMQP12NumericFieldIjLc105ESt9enable_ifILb1EjEEcvjEv@Base 4.3.23
 _ZNK4AMQP12NumericFieldIjLc105ESt9enable_ifILb1EjEEcvsEv@Base 4.3.23
 (optional=templinst)_ZNK4AMQP12NumericFieldIjLc105ESt9enable_ifILb1EjEEcvtEv@Base 4.3.23
 (optional=templinst|subst|arch=i386)_ZNK4AMQP12NumericFieldIjLc105ESt9enable_ifILb1EjEEcv{int64_t}Ev@Base 4.3.23
 (optional=templinst|subst|arch=i386)_ZNK4AMQP12NumericFieldIjLc105ESt9enable_ifILb1EjEEcv{uint64_t}Ev@Base 4.3.23
 (arch=amd64)_ZNK4AMQP12NumericFieldIlLc76ESt9enable_ifILb1ElEEcvdEv@Base 4.3.23
 (arch=amd64)_ZNK4AMQP12NumericFieldIlLc76ESt9enable_ifILb1ElEEcvfEv@Base 4.3.23
 (arch=amd64)_ZNK4AMQP12NumericFieldIlLc76ESt9enable_ifILb1ElEEcviEv@Base 4.3.23
 (optional=templinst|arch=amd64)_ZNK4AMQP12NumericFieldIlLc76ESt9enable_ifILb1ElEEcvjEv@Base 4.3.23
 (optional=templinst|arch=amd64)_ZNK4AMQP12NumericFieldIlLc76ESt9enable_ifILb1ElEEcvlEv@Base 4.3.23
 (optional=templinst|arch=amd64)_ZNK4AMQP12NumericFieldIlLc76ESt9enable_ifILb1ElEEcvmEv@Base 4.3.23
 (arch=amd64)_ZNK4AMQP12NumericFieldImLc108ESt9enable_ifILb1EmEEcvdEv@Base 4.3.23
 (arch=amd64)_ZNK4AMQP12NumericFieldImLc108ESt9enable_ifILb1EmEEcvfEv@Base 4.3.23
 (arch=amd64)_ZNK4AMQP12NumericFieldImLc108ESt9enable_ifILb1EmEEcviEv@Base 4.3.23
 (optional=templinst|arch=amd64)_ZNK4AMQP12NumericFieldImLc108ESt9enable_ifILb1EmEEcvjEv@Base 4.3.23
 (optional=templinst|arch=amd64)_ZNK4AMQP12NumericFieldImLc108ESt9enable_ifILb1EmEEcvlEv@Base 4.3.23
 (optional=templinst|arch=amd64)_ZNK4AMQP12NumericFieldImLc108ESt9enable_ifILb1EmEEcvmEv@Base 4.3.23
 (arch=amd64)_ZNK4AMQP12NumericFieldImLc84ESt9enable_ifILb1EmEEcvdEv@Base 4.3.23
 (arch=amd64)_ZNK4AMQP12NumericFieldImLc84ESt9enable_ifILb1EmEEcvfEv@Base 4.3.23
 (arch=amd64)_ZNK4AMQP12NumericFieldImLc84ESt9enable_ifILb1EmEEcviEv@Base 4.3.23
 (optional=templinst|arch=amd64)_ZNK4AMQP12NumericFieldImLc84ESt9enable_ifILb1EmEEcvjEv@Base 4.3.23
 (optional=templinst|arch=amd64)_ZNK4AMQP12NumericFieldImLc84ESt9enable_ifILb1EmEEcvlEv@Base 4.3.23
 (optional=templinst|arch=amd64)_ZNK4AMQP12NumericFieldImLc84ESt9enable_ifILb1EmEEcvmEv@Base 4.3.23
 (optional=templinst)_ZNK4AMQP12NumericFieldIsLc85ESt9enable_ifILb1EsEE4fillERNS_9OutBufferE@Base 4.3.23
 (optional=templinst)_ZNK4AMQP12NumericFieldIsLc85ESt9enable_ifILb1EsEE4sizeEv@Base 4.3.23
 (optional=templinst)_ZNK4AMQP12NumericFieldIsLc85ESt9enable_ifILb1EsEE5cloneEv@Base 4.3.23
 (optional=templinst)_ZNK4AMQP12NumericFieldIsLc85ESt9enable_ifILb1EsEE6outputERSo@Base 4.3.23
 (optional=templinst)_ZNK4AMQP12NumericFieldIsLc85ESt9enable_ifILb1EsEE6typeIDEv@Base 4.3.23
 (optional=templinst)_ZNK4AMQP12NumericFieldIsLc85ESt9enable_ifILb1EsEE9isIntegerEv@Base 4.3.23
 (optional=templinst)_ZNK4AMQP12NumericFieldIsLc85ESt9enable_ifILb1EsEEcvaEv@Base 4.3.23
 _ZNK4AMQP12NumericFieldIsLc85ESt9enable_ifILb1EsEEcvdEv@Base 4.3.23
 _ZNK4AMQP12NumericFieldIsLc85ESt9enable_ifILb1EsEEcvfEv@Base 4.3.23
 (optional=templinst)_ZNK4AMQP12NumericFieldIsLc85ESt9enable_ifILb1EsEEcvhEv@Base 4.3.23
 _ZNK4AMQP12NumericFieldIsLc85ESt9enable_ifILb1EsEEcviEv@Base 4.3.23
 (optional=templinst)_ZNK4AMQP12NumericFieldIsLc85ESt9enable_ifILb1EsEEcvjEv@Base 4.3.23
 _ZNK4AMQP12NumericFieldIsLc85ESt9enable_ifILb1EsEEcvsEv@Base 4.3.23
 (optional=templinst)_ZNK4AMQP12NumericFieldIsLc85ESt9enable_ifILb1EsEEcvtEv@Base 4.3.23
 (optional=templinst|subst|arch=i386)_ZNK4AMQP12NumericFieldIsLc85ESt9enable_ifILb1EsEEcv{int64_t}Ev@Base 4.3.23
 (optional=templinst|subst|arch=i386)_ZNK4AMQP12NumericFieldIsLc85ESt9enable_ifILb1EsEEcv{uint64_t}Ev@Base 4.3.23
 (optional=templinst)_ZNK4AMQP12NumericFieldItLc117ESt9enable_ifILb1EtEE4fillERNS_9OutBufferE@Base 4.3.23
 (optional=templinst)_ZNK4AMQP12NumericFieldItLc117ESt9enable_ifILb1EtEE4sizeEv@Base 4.3.23
 (optional=templinst)_ZNK4AMQP12NumericFieldItLc117ESt9enable_ifILb1EtEE5cloneEv@Base 4.3.23
 (optional=templinst)_ZNK4AMQP12NumericFieldItLc117ESt9enable_ifILb1EtEE6outputERSo@Base 4.3.23
 (optional=templinst)_ZNK4AMQP12NumericFieldItLc117ESt9enable_ifILb1EtEE6typeIDEv@Base 4.3.23
 (optional=templinst)_ZNK4AMQP12NumericFieldItLc117ESt9enable_ifILb1EtEE9isIntegerEv@Base 4.3.23
 (optional=templinst)_ZNK4AMQP12NumericFieldItLc117ESt9enable_ifILb1EtEEcvaEv@Base 4.3.23
 _ZNK4AMQP12NumericFieldItLc117ESt9enable_ifILb1EtEEcvdEv@Base 4.3.23
 _ZNK4AMQP12NumericFieldItLc117ESt9enable_ifILb1EtEEcvfEv@Base 4.3.23
 (optional=templinst)_ZNK4AMQP12NumericFieldItLc117ESt9enable_ifILb1EtEEcvhEv@Base 4.3.23
 _ZNK4AMQP12NumericFieldItLc117ESt9enable_ifILb1EtEEcviEv@Base 4.3.23
 (optional=templinst)_ZNK4AMQP12NumericFieldItLc117ESt9enable_ifILb1EtEEcvjEv@Base 4.3.23
 _ZNK4AMQP12NumericFieldItLc117ESt9enable_ifILb1EtEEcvsEv@Base 4.3.23
 (optional=templinst)_ZNK4AMQP12NumericFieldItLc117ESt9enable_ifILb1EtEEcvtEv@Base 4.3.23
 (optional=templinst|subst|arch=i386)_ZNK4AMQP12NumericFieldItLc117ESt9enable_ifILb1EtEEcv{int64_t}Ev@Base 4.3.23
 (optional=templinst|subst|arch=i386)_ZNK4AMQP12NumericFieldItLc117ESt9enable_ifILb1EtEEcv{uint64_t}Ev@Base 4.3.23
 (arch=i386)_ZNK4AMQP12NumericFieldIxLc76ESt9enable_ifILb1ExEEcvdEv@Base 4.3.23
 (arch=i386)_ZNK4AMQP12NumericFieldIxLc76ESt9enable_ifILb1ExEEcvfEv@Base 4.3.23
 (arch=i386)_ZNK4AMQP12NumericFieldIxLc76ESt9enable_ifILb1ExEEcviEv@Base 4.3.23
 (optional=templinst|arch=i386)_ZNK4AMQP12NumericFieldIxLc76ESt9enable_ifILb1ExEEcvjEv@Base 4.3.23
 (optional=templinst|arch=i386)_ZNK4AMQP12NumericFieldIxLc76ESt9enable_ifILb1ExEEcvxEv@Base 4.3.23
 (optional=templinst|arch=i386)_ZNK4AMQP12NumericFieldIxLc76ESt9enable_ifILb1ExEEcvyEv@Base 4.3.23
 (arch=i386)_ZNK4AMQP12NumericFieldIyLc108ESt9enable_ifILb1EyEEcvdEv@Base 4.3.23
 (arch=i386)_ZNK4AMQP12NumericFieldIyLc108ESt9enable_ifILb1EyEEcvfEv@Base 4.3.23
 (arch=i386)_ZNK4AMQP12NumericFieldIyLc108ESt9enable_ifILb1EyEEcviEv@Base 4.3.23
 (optional=templinst|arch=i386)_ZNK4AMQP12NumericFieldIyLc108ESt9enable_ifILb1EyEEcvjEv@Base 4.3.23
 (optional=templinst|arch=i386)_ZNK4AMQP12NumericFieldIyLc108ESt9enable_ifILb1EyEEcvxEv@Base 4.3.23
 (optional=templinst|arch=i386)_ZNK4AMQP12NumericFieldIyLc108ESt9enable_ifILb1EyEEcvyEv@Base 4.3.23
 (arch=i386)_ZNK4AMQP12NumericFieldIyLc84ESt9enable_ifILb1EyEEcvdEv@Base 4.3.23
 (arch=i386)_ZNK4AMQP12NumericFieldIyLc84ESt9enable_ifILb1EyEEcvfEv@Base 4.3.23
 (arch=i386)_ZNK4AMQP12NumericFieldIyLc84ESt9enable_ifILb1EyEEcviEv@Base 4.3.23
 (optional=templinst|arch=i386)_ZNK4AMQP12NumericFieldIyLc84ESt9enable_ifILb1EyEEcvjEv@Base 4.3.23
 (optional=templinst|arch=i386)_ZNK4AMQP12NumericFieldIyLc84ESt9enable_ifILb1EyEEcvxEv@Base 4.3.23
 (optional=templinst|arch=i386)_ZNK4AMQP12NumericFieldIyLc84ESt9enable_ifILb1EyEEcvyEv@Base 4.3.23
 (optional=templinst|subst|arch=i386)_ZNK4AMQP12NumericFieldI{int64_t}Lc76ESt9enable_ifILb1E{int64_t}EE4fillERNS_9OutBufferE@Base 4.3.23
 (optional=templinst|subst|arch=i386)_ZNK4AMQP12NumericFieldI{int64_t}Lc76ESt9enable_ifILb1E{int64_t}EE4sizeEv@Base 4.3.23
 (optional=templinst|subst|arch=i386)_ZNK4AMQP12NumericFieldI{int64_t}Lc76ESt9enable_ifILb1E{int64_t}EE5cloneEv@Base 4.3.23
 (optional=templinst|subst|arch=i386)_ZNK4AMQP12NumericFieldI{int64_t}Lc76ESt9enable_ifILb1E{int64_t}EE6outputERSo@Base 4.3.23
 (optional=templinst|subst|arch=i386)_ZNK4AMQP12NumericFieldI{int64_t}Lc76ESt9enable_ifILb1E{int64_t}EE6typeIDEv@Base 4.3.23
 (optional=templinst|subst|arch=i386)_ZNK4AMQP12NumericFieldI{int64_t}Lc76ESt9enable_ifILb1E{int64_t}EE9isIntegerEv@Base 4.3.23
 (optional=templinst|subst|arch=i386)_ZNK4AMQP12NumericFieldI{int64_t}Lc76ESt9enable_ifILb1E{int64_t}EEcvaEv@Base 4.3.23
 (optional=templinst|subst|arch=i386)_ZNK4AMQP12NumericFieldI{int64_t}Lc76ESt9enable_ifILb1E{int64_t}EEcvhEv@Base 4.3.23
 (optional=templinst|subst|arch=i386)_ZNK4AMQP12NumericFieldI{int64_t}Lc76ESt9enable_ifILb1E{int64_t}EEcvsEv@Base 4.3.23
 (optional=templinst|subst|arch=i386)_ZNK4AMQP12NumericFieldI{int64_t}Lc76ESt9enable_ifILb1E{int64_t}EEcvtEv@Base 4.3.23
 (optional=templinst|subst|arch=i386)_ZNK4AMQP12NumericFieldI{uint64_t}Lc108ESt9enable_ifILb1E{uint64_t}EE4fillERNS_9OutBufferE@Base 4.3.23
 (optional=templinst|subst|arch=i386)_ZNK4AMQP12NumericFieldI{uint64_t}Lc108ESt9enable_ifILb1E{uint64_t}EE4sizeEv@Base 4.3.23
 (optional=templinst|subst|arch=i386)_ZNK4AMQP12NumericFieldI{uint64_t}Lc108ESt9enable_ifILb1E{uint64_t}EE5cloneEv@Base 4.3.23
 (optional=templinst|subst|arch=i386)_ZNK4AMQP12NumericFieldI{uint64_t}Lc108ESt9enable_ifILb1E{uint64_t}EE6outputERSo@Base 4.3.23
 (optional=templinst|subst|arch=i386)_ZNK4AMQP12NumericFieldI{uint64_t}Lc108ESt9enable_ifILb1E{uint64_t}EE6typeIDEv@Base 4.3.23
 (optional=templinst|subst|arch=i386)_ZNK4AMQP12NumericFieldI{uint64_t}Lc108ESt9enable_ifILb1E{uint64_t}EE9isIntegerEv@Base 4.3.23
 (optional=templinst|subst|arch=i386)_ZNK4AMQP12NumericFieldI{uint64_t}Lc108ESt9enable_ifILb1E{uint64_t}EEcvaEv@Base 4.3.23
 (optional=templinst|subst|arch=i386)_ZNK4AMQP12NumericFieldI{uint64_t}Lc108ESt9enable_ifILb1E{uint64_t}EEcvhEv@Base 4.3.23
 (optional=templinst|subst|arch=i386)_ZNK4AMQP12NumericFieldI{uint64_t}Lc108ESt9enable_ifILb1E{uint64_t}EEcvsEv@Base 4.3.23
 (optional=templinst|subst|arch=i386)_ZNK4AMQP12NumericFieldI{uint64_t}Lc108ESt9enable_ifILb1E{uint64_t}EEcvtEv@Base 4.3.23
 (optional=templinst|subst|arch=i386)_ZNK4AMQP12NumericFieldI{uint64_t}Lc84ESt9enable_ifILb1E{uint64_t}EE4fillERNS_9OutBufferE@Base 4.3.23
 (optional=templinst|subst|arch=i386)_ZNK4AMQP12NumericFieldI{uint64_t}Lc84ESt9enable_ifILb1E{uint64_t}EE4sizeEv@Base 4.3.23
 (optional=templinst|subst|arch=i386)_ZNK4AMQP12NumericFieldI{uint64_t}Lc84ESt9enable_ifILb1E{uint64_t}EE5cloneEv@Base 4.3.23
 (optional=templinst|subst|arch=i386)_ZNK4AMQP12NumericFieldI{uint64_t}Lc84ESt9enable_ifILb1E{uint64_t}EE6outputERSo@Base 4.3.23
 (optional=templinst|subst|arch=i386)_ZNK4AMQP12NumericFieldI{uint64_t}Lc84ESt9enable_ifILb1E{uint64_t}EE6typeIDEv@Base 4.3.23
 (optional=templinst|subst|arch=i386)_ZNK4AMQP12NumericFieldI{uint64_t}Lc84ESt9enable_ifILb1E{uint64_t}EE9isIntegerEv@Base 4.3.23
 (optional=templinst|subst|arch=i386)_ZNK4AMQP12NumericFieldI{uint64_t}Lc84ESt9enable_ifILb1E{uint64_t}EEcvaEv@Base 4.3.23
 (optional=templinst|subst|arch=i386)_ZNK4AMQP12NumericFieldI{uint64_t}Lc84ESt9enable_ifILb1E{uint64_t}EEcvhEv@Base 4.3.23
 (optional=templinst|subst|arch=i386)_ZNK4AMQP12NumericFieldI{uint64_t}Lc84ESt9enable_ifILb1E{uint64_t}EEcvsEv@Base 4.3.23
 (optional=templinst|subst|arch=i386)_ZNK4AMQP12NumericFieldI{uint64_t}Lc84ESt9enable_ifILb1E{uint64_t}EEcvtEv@Base 4.3.23
 _ZNK4AMQP12SslConnected6queuedEv@Base 4.3.23
 _ZNK4AMQP12SslHandshake6queuedEv@Base 4.3.23
 _ZNK4AMQP12TcpConnected6queuedEv@Base 4.3.23
 _ZNK4AMQP13BasicAckFrame11synchronousEv@Base 4.3.23
 _ZNK4AMQP13BasicAckFrame4fillERNS_9OutBufferE@Base 4.3.23
 _ZNK4AMQP13BasicAckFrame8methodIDEv@Base 4.3.23
 _ZNK4AMQP13BasicGetFrame4fillERNS_9OutBufferE@Base 4.3.23
 _ZNK4AMQP13BasicGetFrame8methodIDEv@Base 4.3.23
 _ZNK4AMQP13BasicQosFrame4fillERNS_9OutBufferE@Base 4.3.23
 _ZNK4AMQP13BasicQosFrame8methodIDEv@Base 4.3.23
 _ZNK4AMQP13DeferredQueue13reportSuccessERKNSt7__cxx1112basic_stringIcSt11char_traitsIcESaIcEEEjj@Base 4.3.23
 _ZNK4AMQP13ExchangeFrame7classIDEv@Base 4.3.23
 _ZNK4AMQP13ReceivedFrame6headerEv@Base 4.3.23
 _ZNK4AMQP13ReceivedFrame8completeEv@Base 4.3.23
 (optional=templinst|subst|arch=i386)_ZNK4AMQP13ReducedBuffer4byteE{size_t}@Base 4.3.23
 (optional=templinst|subst|arch=i386)_ZNK4AMQP13ReducedBuffer4copyE{size_t}{size_t}Pv@Base 4.3.23
 (optional=templinst|subst|arch=i386)_ZNK4AMQP13ReducedBuffer4dataE{size_t}{size_t}@Base 4.3.23
 _ZNK4AMQP13ReducedBuffer4sizeEv@Base 4.3.23
 _ZNK4AMQP13TcpConnection6closedEv@Base 4.3.23
 _ZNK4AMQP13TcpConnection6filenoEv@Base 4.3.23
 _ZNK4AMQP13TcpConnection6queuedEv@Base 4.3.23
 _ZNK4AMQP14BasicNackFrame4fillERNS_9OutBufferE@Base 4.3.23
 _ZNK4AMQP14BasicNackFrame8methodIDEv@Base 4.3.23
 _ZNK4AMQP14ConnectionImpl15waitingChannelsEv@Base 4.3.23
 _ZNK4AMQP14ConnectionImpl7waitingEv@Base 4.3.23
 _ZNK4AMQP14DeferredDelete13reportSuccessEj@Base 4.3.23
 _ZNK4AMQP14HeartbeatFrame4typeEv@Base 4.3.23
 _ZNK4AMQP14QueueBindFrame11synchronousEv@Base 4.3.23
 _ZNK4AMQP14QueueBindFrame4fillERNS_9OutBufferE@Base 4.3.23
 _ZNK4AMQP14QueueBindFrame8methodIDEv@Base 4.3.23
 _ZNK4AMQP15BasicGetOKFrame4fillERNS_9OutBufferE@Base 4.3.23
 _ZNK4AMQP15BasicGetOKFrame8methodIDEv@Base 4.3.23
 _ZNK4AMQP15BasicQosOKFrame4fillERNS_9OutBufferE@Base 4.3.23
 _ZNK4AMQP15BasicQosOKFrame8methodIDEv@Base 4.3.23
 _ZNK4AMQP15ConnectionFrame7classIDEv@Base 4.3.23
 _ZNK4AMQP15QueuePurgeFrame11synchronousEv@Base 4.3.23
 _ZNK4AMQP15QueuePurgeFrame4fillERNS_9OutBufferE@Base 4.3.23
 _ZNK4AMQP15QueuePurgeFrame8methodIDEv@Base 4.3.23
 _ZNK4AMQP15SslErrorPrinter4dataEv@Base 4.3.23
 _ZNK4AMQP15SslErrorPrinter4sizeEv@Base 4.3.23
 _ZNK4AMQP16BasicCancelFrame11synchronousEv@Base 4.3.23
 _ZNK4AMQP16BasicCancelFrame4fillERNS_9OutBufferE@Base 4.3.23
 _ZNK4AMQP16BasicCancelFrame8methodIDEv@Base 4.3.23
 _ZNK4AMQP16BasicHeaderFrame4fillERNS_9OutBufferE@Base 4.3.23
 _ZNK4AMQP16BasicHeaderFrame7classIDEv@Base 4.3.23
 _ZNK4AMQP16BasicRejectFrame11synchronousEv@Base 4.3.23
 _ZNK4AMQP16BasicRejectFrame4fillERNS_9OutBufferE@Base 4.3.23
 _ZNK4AMQP16BasicRejectFrame8methodIDEv@Base 4.3.23
 _ZNK4AMQP16BasicReturnFrame11synchronousEv@Base 4.3.23
 _ZNK4AMQP16BasicReturnFrame4fillERNS_9OutBufferE@Base 4.3.23
 _ZNK4AMQP16BasicReturnFrame8methodIDEv@Base 4.3.23
 _ZNK4AMQP16ChannelFlowFrame4fillERNS_9OutBufferE@Base 4.3.23
 _ZNK4AMQP16ChannelFlowFrame8methodIDEv@Base 4.3.23
 _ZNK4AMQP16ChannelOpenFrame4fillERNS_9OutBufferE@Base 4.3.23
 _ZNK4AMQP16ChannelOpenFrame8methodIDEv@Base 4.3.23
 _ZNK4AMQP16QueueBindOKFrame4fillERNS_9OutBufferE@Base 4.3.23
 _ZNK4AMQP16QueueBindOKFrame8methodIDEv@Base 4.3.23
 _ZNK4AMQP16QueueDeleteFrame11synchronousEv@Base 4.3.23
 _ZNK4AMQP16QueueDeleteFrame4fillERNS_9OutBufferE@Base 4.3.23
 _ZNK4AMQP16QueueDeleteFrame8methodIDEv@Base 4.3.23
 _ZNK4AMQP16QueueUnbindFrame4fillERNS_9OutBufferE@Base 4.3.23
 _ZNK4AMQP16QueueUnbindFrame8methodIDEv@Base 4.3.23
 _ZNK4AMQP16TransactionFrame7classIDEv@Base 4.3.23
 _ZNK4AMQP17BasicConsumeFrame11synchronousEv@Base 4.3.23
 _ZNK4AMQP17BasicConsumeFrame4fillERNS_9OutBufferE@Base 4.3.23
 _ZNK4AMQP17BasicConsumeFrame8methodIDEv@Base 4.3.23
 _ZNK4AMQP17BasicDeliverFrame11synchronousEv@Base 4.3.23
 _ZNK4AMQP17BasicDeliverFrame4fillERNS_9OutBufferE@Base 4.3.23
 _ZNK4AMQP17BasicDeliverFrame8methodIDEv@Base 4.3.23
 _ZNK4AMQP17BasicPublishFrame11synchronousEv@Base 4.3.23
 _ZNK4AMQP17BasicPublishFrame4fillERNS_9OutBufferE@Base 4.3.23
 _ZNK4AMQP17BasicPublishFrame8methodIDEv@Base 4.3.23
 _ZNK4AMQP17BasicRecoverFrame11synchronousEv@Base 4.3.23
 _ZNK4AMQP17BasicRecoverFrame4fillERNS_9OutBufferE@Base 4.3.23
 _ZNK4AMQP17BasicRecoverFrame8methodIDEv@Base 4.3.23
 _ZNK4AMQP17ChannelCloseFrame4fillERNS_9OutBufferE@Base 4.3.23
 _ZNK4AMQP17ChannelCloseFrame8methodIDEv@Base 4.3.23
 _ZNK4AMQP17ExchangeBindFrame11synchronousEv@Base 4.3.23
 _ZNK4AMQP17ExchangeBindFrame4fillERNS_9OutBufferE@Base 4.3.23
 _ZNK4AMQP17ExchangeBindFrame8methodIDEv@Base 4.3.23
 _ZNK4AMQP17QueueDeclareFrame11synchronousEv@Base 4.3.23
 _ZNK4AMQP17QueueDeclareFrame4fillERNS_9OutBufferE@Base 4.3.23
 _ZNK4AMQP17QueueDeclareFrame8methodIDEv@Base 4.3.23
 _ZNK4AMQP17QueuePurgeOKFrame4fillERNS_9OutBufferE@Base 4.3.23
 _ZNK4AMQP17QueuePurgeOKFrame8methodIDEv@Base 4.3.23
 _ZNK4AMQP18BasicCancelOKFrame4fillERNS_9OutBufferE@Base 4.3.23
 _ZNK4AMQP18BasicCancelOKFrame8methodIDEv@Base 4.3.23
 _ZNK4AMQP18BasicGetEmptyFrame4fillERNS_9OutBufferE@Base 4.3.23
 _ZNK4AMQP18BasicGetEmptyFrame8methodIDEv@Base 4.3.23
 _ZNK4AMQP18ChannelFlowOKFrame4fillERNS_9OutBufferE@Base 4.3.23
 _ZNK4AMQP18ChannelFlowOKFrame8methodIDEv@Base 4.3.23
 _ZNK4AMQP18ChannelOpenOKFrame4fillERNS_9OutBufferE@Base 4.3.23
 _ZNK4AMQP18ChannelOpenOKFrame8methodIDEv@Base 4.3.23
 _ZNK4AMQP18ConfirmSelectFrame4fillERNS_9OutBufferE@Base 4.3.23
 _ZNK4AMQP18ConfirmSelectFrame8methodIDEv@Base 4.3.23
 _ZNK4AMQP18QueueDeleteOKFrame4fillERNS_9OutBufferE@Base 4.3.23
 _ZNK4AMQP18QueueDeleteOKFrame8methodIDEv@Base 4.3.23
 _ZNK4AMQP18QueueUnbindOKFrame4fillERNS_9OutBufferE@Base 4.3.23
 _ZNK4AMQP18QueueUnbindOKFrame8methodIDEv@Base 4.3.23
 _ZNK4AMQP19BasicConsumeOKFrame4fillERNS_9OutBufferE@Base 4.3.23
 _ZNK4AMQP19BasicConsumeOKFrame8methodIDEv@Base 4.3.23
 _ZNK4AMQP19BasicRecoverOKFrame4fillERNS_9OutBufferE@Base 4.3.23
 _ZNK4AMQP19BasicRecoverOKFrame8methodIDEv@Base 4.3.23
 _ZNK4AMQP19ChannelCloseOKFrame4fillERNS_9OutBufferE@Base 4.3.23
 _ZNK4AMQP19ChannelCloseOKFrame8methodIDEv@Base 4.3.23
 _ZNK4AMQP19ConnectionOpenFrame15partOfHandshakeEv@Base 4.3.23
 _ZNK4AMQP19ConnectionOpenFrame4fillERNS_9OutBufferE@Base 4.3.23
 _ZNK4AMQP19ConnectionOpenFrame8methodIDEv@Base 4.3.23
 _ZNK4AMQP19ConnectionTuneFrame4fillERNS_9OutBufferE@Base 4.3.23
 _ZNK4AMQP19ConnectionTuneFrame8methodIDEv@Base 4.3.23
 _ZNK4AMQP19ExchangeBindOKFrame4fillERNS_9OutBufferE@Base 4.3.23
 _ZNK4AMQP19ExchangeBindOKFrame8methodIDEv@Base 4.3.23
 _ZNK4AMQP19ExchangeDeleteFrame11synchronousEv@Base 4.3.23
 _ZNK4AMQP19ExchangeDeleteFrame4fillERNS_9OutBufferE@Base 4.3.23
 _ZNK4AMQP19ExchangeDeleteFrame8methodIDEv@Base 4.3.23
 _ZNK4AMQP19ExchangeUnbindFrame11synchronousEv@Base 4.3.23
 _ZNK4AMQP19ExchangeUnbindFrame4fillERNS_9OutBufferE@Base 4.3.23
 _ZNK4AMQP19ExchangeUnbindFrame8methodIDEv@Base 4.3.23
 _ZNK4AMQP19ProtocolHeaderFrame14needsSeparatorEv@Base 4.3.23
 _ZNK4AMQP19ProtocolHeaderFrame15partOfHandshakeEv@Base 4.3.23
 _ZNK4AMQP19ProtocolHeaderFrame4fillERNS_9OutBufferE@Base 4.3.23
 _ZNK4AMQP19ProtocolHeaderFrame9totalSizeEv@Base 4.3.23
 _ZNK4AMQP19QueueDeclareOKFrame4fillERNS_9OutBufferE@Base 4.3.23
 _ZNK4AMQP19QueueDeclareOKFrame8methodIDEv@Base 4.3.23
 _ZNK4AMQP20ConfirmSelectOKFrame4fillERNS_9OutBufferE@Base 4.3.23
 _ZNK4AMQP20ConfirmSelectOKFrame8methodIDEv@Base 4.3.23
 _ZNK4AMQP20ConnectionCloseFrame14partOfShutdownEv@Base 4.3.23
 _ZNK4AMQP20ConnectionCloseFrame4fillERNS_9OutBufferE@Base 4.3.23
 _ZNK4AMQP20ConnectionCloseFrame8methodIDEv@Base 4.3.23
 _ZNK4AMQP20ConnectionStartFrame4fillERNS_9OutBufferE@Base 4.3.23
 _ZNK4AMQP20ConnectionStartFrame8methodIDEv@Base 4.3.23
 _ZNK4AMQP20ExchangeDeclareFrame11synchronousEv@Base 4.3.23
 _ZNK4AMQP20ExchangeDeclareFrame4fillERNS_9OutBufferE@Base 4.3.23
 _ZNK4AMQP20ExchangeDeclareFrame8methodIDEv@Base 4.3.23
 _ZNK4AMQP21ConnectionOpenOKFrame4fillERNS_9OutBufferE@Base 4.3.23
 _ZNK4AMQP21ConnectionOpenOKFrame8methodIDEv@Base 4.3.23
 _ZNK4AMQP21ConnectionSecureFrame4fillERNS_9OutBufferE@Base 4.3.23
 _ZNK4AMQP21ConnectionSecureFrame8methodIDEv@Base 4.3.23
 _ZNK4AMQP21ConnectionTuneOKFrame15partOfHandshakeEv@Base 4.3.23
 _ZNK4AMQP21ConnectionTuneOKFrame4fillERNS_9OutBufferE@Base 4.3.23
 _ZNK4AMQP21ConnectionTuneOKFrame8methodIDEv@Base 4.3.23
 _ZNK4AMQP21ExchangeDeleteOKFrame4fillERNS_9OutBufferE@Base 4.3.23
 _ZNK4AMQP21ExchangeDeleteOKFrame8methodIDEv@Base 4.3.23
 _ZNK4AMQP21ExchangeUnbindOKFrame4fillERNS_9OutBufferE@Base 4.3.23
 _ZNK4AMQP21ExchangeUnbindOKFrame8methodIDEv@Base 4.3.23
 _ZNK4AMQP22BasicRecoverAsyncFrame11synchronousEv@Base 4.3.23
 _ZNK4AMQP22BasicRecoverAsyncFrame4fillERNS_9OutBufferE@Base 4.3.23
 _ZNK4AMQP22BasicRecoverAsyncFrame8methodIDEv@Base 4.3.23
 _ZNK4AMQP22ConnectionCloseOKFrame4fillERNS_9OutBufferE@Base 4.3.23
 _ZNK4AMQP22ConnectionCloseOKFrame8methodIDEv@Base 4.3.23
 _ZNK4AMQP22ConnectionStartOKFrame15partOfHandshakeEv@Base 4.3.23
 _ZNK4AMQP22ConnectionStartOKFrame4fillERNS_9OutBufferE@Base 4.3.23
 _ZNK4AMQP22ConnectionStartOKFrame8methodIDEv@Base 4.3.23
 _ZNK4AMQP22ExchangeDeclareOKFrame4fillERNS_9OutBufferE@Base 4.3.23
 _ZNK4AMQP22ExchangeDeclareOKFrame8methodIDEv@Base 4.3.23
 _ZNK4AMQP22TransactionCommitFrame8methodIDEv@Base 4.3.23
 _ZNK4AMQP22TransactionSelectFrame8methodIDEv@Base 4.3.23
 _ZNK4AMQP23ConnectionSecureOKFrame4fillERNS_9OutBufferE@Base 4.3.23
 _ZNK4AMQP23ConnectionSecureOKFrame8methodIDEv@Base 4.3.23
 _ZNK4AMQP24TransactionCommitOKFrame4fillERNS_9OutBufferE@Base 4.3.23
 _ZNK4AMQP24TransactionCommitOKFrame8methodIDEv@Base 4.3.23
 _ZNK4AMQP24TransactionRollbackFrame8methodIDEv@Base 4.3.23
 _ZNK4AMQP24TransactionSelectOKFrame4fillERNS_9OutBufferE@Base 4.3.23
 _ZNK4AMQP24TransactionSelectOKFrame8methodIDEv@Base 4.3.23
 _ZNK4AMQP26TransactionRollbackOKFrame4fillERNS_9OutBufferE@Base 4.3.23
 _ZNK4AMQP26TransactionRollbackOKFrame8methodIDEv@Base 4.3.23
 _ZNK4AMQP5Array3getEh@Base 4.3.23
 _ZNK4AMQP5Array4fillERNS_9OutBufferE@Base 4.3.23
 _ZNK4AMQP5Array4sizeEv@Base 4.3.23
 _ZNK4AMQP5Array5cloneEv@Base 4.3.23
 _ZNK4AMQP5Array5countEv@Base 4.3.23
 _ZNK4AMQP5Array6outputERSo@Base 4.3.23
 _ZNK4AMQP5Array6typeIDEv@Base 4.3.23
 _ZNK4AMQP5Array7isArrayEv@Base 4.3.23
 _ZNK4AMQP5ArraycvRKS0_Ev@Base 4.3.23
 _ZNK4AMQP5Field6isVoidEv@Base 4.3.23
 _ZNK4AMQP5Field7isArrayEv@Base 4.3.23
 _ZNK4AMQP5Field7isTableEv@Base 4.3.23
 _ZNK4AMQP5Field8isStringEv@Base 4.3.23
 _ZNK4AMQP5Field9isBooleanEv@Base 4.3.23
 _ZNK4AMQP5Field9isDecimalEv@Base 4.3.23
 _ZNK4AMQP5Field9isIntegerEv@Base 4.3.23
 _ZNK4AMQP5FieldcvPKcEv@Base 4.3.23
 _ZNK4AMQP5FieldcvRKNS_5ArrayEEv@Base 4.3.23
 _ZNK4AMQP5FieldcvRKNS_5TableEEv@Base 4.3.23
 (optional=templinst)_ZNK4AMQP5FieldcvRKNSt7__cxx1112basic_stringIcSt11char_traitsIcESaIcEEEEv@Base 4.3.23
 _ZNK4AMQP5FieldcvaEv@Base 4.3.23
 _ZNK4AMQP5FieldcvdEv@Base 4.3.23
 _ZNK4AMQP5FieldcvfEv@Base 4.3.23
 _ZNK4AMQP5FieldcvhEv@Base 4.3.23
 _ZNK4AMQP5FieldcviEv@Base 4.3.23
 _ZNK4AMQP5FieldcvjEv@Base 4.3.23
 _ZNK4AMQP5FieldcvsEv@Base 4.3.23
 _ZNK4AMQP5FieldcvtEv@Base 4.3.23
 (optional=templinst|subst|arch=i386)_ZNK4AMQP5Fieldcv{int64_t}Ev@Base 4.3.23
 (optional=templinst|subst|arch=i386)_ZNK4AMQP5Fieldcv{uint64_t}Ev@Base 4.3.23
 _ZNK4AMQP5Frame11synchronousEv@Base 4.3.23
 _ZNK4AMQP5Frame14needsSeparatorEv@Base 4.3.23
 _ZNK4AMQP5Frame14partOfShutdownEv@Base 4.3.23
 _ZNK4AMQP5Frame15partOfHandshakeEv@Base 4.3.23
 _ZNK4AMQP5Table3getERKNSt7__cxx1112basic_stringIcSt11char_traitsIcESaIcEEE@Base 4.3.23
 _ZNK4AMQP5Table4fillERNS_9OutBufferE@Base 4.3.23
 _ZNK4AMQP5Table4keysB5cxx11Ev@Base 4.3.23
 _ZNK4AMQP5Table4sizeEv@Base 4.3.23
 _ZNK4AMQP5Table5cloneEv@Base 4.3.23
 _ZNK4AMQP5Table6outputERSo@Base 4.3.23
 _ZNK4AMQP5Table6typeIDEv@Base 4.3.23
 _ZNK4AMQP5Table7isTableEv@Base 4.3.23
 _ZNK4AMQP5TablecvRKS0_Ev@Base 4.3.23
 _ZNK4AMQP6Tagger14unacknowledgedEv@Base 4.3.23
 _ZNK4AMQP8Deferred13reportSuccessERKNSt7__cxx1112basic_stringIcSt11char_traitsIcESaIcEEEjj@Base 4.3.23
 _ZNK4AMQP8Deferred13reportSuccessEj@Base 4.3.23
 _ZNK4AMQP8Deferred13reportSuccessEv@Base 4.3.23
 _ZNK4AMQP8ExtFrame4fillERNS_9OutBufferE@Base 4.3.23
 _ZNK4AMQP8ExtFrame9totalSizeEv@Base 4.3.23
 _ZNK4AMQP8MetaData4fillERNS_9OutBufferE@Base 4.3.23
 _ZNK4AMQP8MetaData4sizeEv@Base 4.3.23
 _ZNK4AMQP8TcpState6closedEv@Base 4.3.23
 _ZNK4AMQP8TcpState6filenoEv@Base 4.3.23
 _ZNK4AMQP8TcpState6queuedEv@Base 4.3.23
 _ZNK4AMQP8Throttle14unacknowledgedEv@Base 4.3.23
 _ZNK4AMQP9BodyFrame4fillERNS_9OutBufferE@Base 4.3.23
 _ZNK4AMQP9BodyFrame4typeEv@Base 4.3.23
 _ZNK4AMQP9TcpClosed6closedEv@Base 4.3.23
 _ZNK4AMQP9VoidField4fillERNS_9OutBufferE@Base 4.3.23
 _ZNK4AMQP9VoidField4sizeEv@Base 4.3.23
 _ZNK4AMQP9VoidField5cloneEv@Base 4.3.23
 _ZNK4AMQP9VoidField6isVoidEv@Base 4.3.23
 _ZNK4AMQP9VoidField6outputERSo@Base 4.3.23
 _ZNK4AMQP9VoidField6typeIDEv@Base 4.3.23
 (optional=templinst)_ZNKSt8_Rb_treeINSt7__cxx1112basic_stringIcSt11char_traitsIcESaIcEEESt4pairIKS5_St10unique_ptrIN4AMQP5FieldESt14default_deleteISA_EEESt10_Select1stISE_ESt4lessIS5_ESaISE_EE4findERS7_@Base 4.3.23
 (optional=templinst)_ZNSt10_HashtableItSt4pairIKtSt10shared_ptrIN4AMQP11ChannelImplEEESaIS6_ENSt8__detail10_Select1stESt8equal_toItESt4hashItENS8_18_Mod_range_hashingENS8_20_Default_ranged_hashENS8_20_Prime_rehash_policyENS8_17_Hashtable_traitsILb0ELb0ELb1EEEE5clearEv@Base 4.3.23
 (optional=templinst|subst|arch=i386)_ZNSt10_HashtableItSt4pairIKtSt10shared_ptrIN4AMQP11ChannelImplEEESaIS6_ENSt8__detail10_Select1stESt8equal_toItESt4hashItENS8_18_Mod_range_hashingENS8_20_Default_ranged_hashENS8_20_Prime_rehash_policyENS8_17_Hashtable_traitsILb0ELb0ELb1EEEE9_M_rehashE{size_t}RK{size_t}@Base 4.3.23
 (optional=templinst)_ZNSt10unique_ptrIN4AMQP5FieldESt14default_deleteIS1_EED1Ev@Base 4.3.23
 (optional=templinst)_ZNSt10unique_ptrIN4AMQP5FieldESt14default_deleteIS1_EED2Ev@Base 4.3.23
 (optional=templinst|subst|arch=i386)_ZNSt11_Deque_baseIN4AMQP12CopiedBufferESaIS1_EE17_M_initialize_mapE{size_t}@Base 4.3.23
 (optional=templinst|subst|arch=i386)_ZNSt11_Deque_baseISt6vectorIcSaIcEESaIS2_EE17_M_initialize_mapE{size_t}@Base 4.3.23
 (optional=templinst)_ZNSt12_Vector_baseIcSaIcEED1Ev@Base 4.3.23
 (optional=templinst)_ZNSt12_Vector_baseIcSaIcEED2Ev@Base 4.3.23
 _ZNSt14_Function_baseD1Ev@Base 4.3.23
 _ZNSt14_Function_baseD2Ev@Base 4.3.23
 (optional=templinst)_ZNSt15_Sp_counted_ptrIDnLN9__gnu_cxx12_Lock_policyE2EE10_M_disposeEv@Base 4.3.23
 (optional=templinst)_ZNSt15_Sp_counted_ptrIPN4AMQP11ChannelImplELN9__gnu_cxx12_Lock_policyE2EE10_M_destroyEv@Base 4.3.23
 (optional=templinst)_ZNSt15_Sp_counted_ptrIPN4AMQP11ChannelImplELN9__gnu_cxx12_Lock_policyE2EE10_M_disposeEv@Base 4.3.23
 (optional=templinst)_ZNSt15_Sp_counted_ptrIPN4AMQP11ChannelImplELN9__gnu_cxx12_Lock_policyE2EE14_M_get_deleterERKSt9type_info@Base 4.3.23
 (optional=templinst)_ZNSt15_Sp_counted_ptrIPN4AMQP11ChannelImplELN9__gnu_cxx12_Lock_policyE2EED0Ev@Base 4.3.23
 (optional=templinst)_ZNSt15_Sp_counted_ptrIPN4AMQP11ChannelImplELN9__gnu_cxx12_Lock_policyE2EED1Ev@Base 4.3.23
 (optional=templinst)_ZNSt15_Sp_counted_ptrIPN4AMQP11ChannelImplELN9__gnu_cxx12_Lock_policyE2EED2Ev@Base 4.3.23
 (optional=templinst)_ZNSt16_Sp_counted_baseILN9__gnu_cxx12_Lock_policyE2EE10_M_destroyEv@Base 4.3.23
 (optional=templinst)_ZNSt16_Sp_counted_baseILN9__gnu_cxx12_Lock_policyE2EE10_M_releaseEv@Base 4.3.23
 (optional=templinst)_ZNSt23_Sp_counted_ptr_inplaceIN4AMQP11DeferredGetESaIS1_ELN9__gnu_cxx12_Lock_policyE2EE10_M_destroyEv@Base 4.3.23
 (optional=templinst)_ZNSt23_Sp_counted_ptr_inplaceIN4AMQP11DeferredGetESaIS1_ELN9__gnu_cxx12_Lock_policyE2EE10_M_disposeEv@Base 4.3.23
 (optional=templinst)_ZNSt23_Sp_counted_ptr_inplaceIN4AMQP11DeferredGetESaIS1_ELN9__gnu_cxx12_Lock_policyE2EE14_M_get_deleterERKSt9type_info@Base 4.3.23
 (optional=templinst)_ZNSt23_Sp_counted_ptr_inplaceIN4AMQP11DeferredGetESaIS1_ELN9__gnu_cxx12_Lock_policyE2EED0Ev@Base 4.3.23
 (optional=templinst)_ZNSt23_Sp_counted_ptr_inplaceIN4AMQP11DeferredGetESaIS1_ELN9__gnu_cxx12_Lock_policyE2EED1Ev@Base 4.3.23
 (optional=templinst)_ZNSt23_Sp_counted_ptr_inplaceIN4AMQP11DeferredGetESaIS1_ELN9__gnu_cxx12_Lock_policyE2EED2Ev@Base 4.3.23
 (optional=templinst)_ZNSt23_Sp_counted_ptr_inplaceIN4AMQP13DeferredQueueESaIS1_ELN9__gnu_cxx12_Lock_policyE2EE10_M_destroyEv@Base 4.3.23
 (optional=templinst)_ZNSt23_Sp_counted_ptr_inplaceIN4AMQP13DeferredQueueESaIS1_ELN9__gnu_cxx12_Lock_policyE2EE10_M_disposeEv@Base 4.3.23
 (optional=templinst)_ZNSt23_Sp_counted_ptr_inplaceIN4AMQP13DeferredQueueESaIS1_ELN9__gnu_cxx12_Lock_policyE2EE14_M_get_deleterERKSt9type_info@Base 4.3.23
 (optional=templinst)_ZNSt23_Sp_counted_ptr_inplaceIN4AMQP13DeferredQueueESaIS1_ELN9__gnu_cxx12_Lock_policyE2EED0Ev@Base 4.3.23
 (optional=templinst)_ZNSt23_Sp_counted_ptr_inplaceIN4AMQP13DeferredQueueESaIS1_ELN9__gnu_cxx12_Lock_policyE2EED1Ev@Base 4.3.23
 (optional=templinst)_ZNSt23_Sp_counted_ptr_inplaceIN4AMQP13DeferredQueueESaIS1_ELN9__gnu_cxx12_Lock_policyE2EED2Ev@Base 4.3.23
 (optional=templinst)_ZNSt23_Sp_counted_ptr_inplaceIN4AMQP14DeferredCancelESaIS1_ELN9__gnu_cxx12_Lock_policyE2EE10_M_destroyEv@Base 4.3.23
 (optional=templinst)_ZNSt23_Sp_counted_ptr_inplaceIN4AMQP14DeferredCancelESaIS1_ELN9__gnu_cxx12_Lock_policyE2EE10_M_disposeEv@Base 4.3.23
 (optional=templinst)_ZNSt23_Sp_counted_ptr_inplaceIN4AMQP14DeferredCancelESaIS1_ELN9__gnu_cxx12_Lock_policyE2EE14_M_get_deleterERKSt9type_info@Base 4.3.23
 (optional=templinst)_ZNSt23_Sp_counted_ptr_inplaceIN4AMQP14DeferredCancelESaIS1_ELN9__gnu_cxx12_Lock_policyE2EED0Ev@Base 4.3.23
 (optional=templinst)_ZNSt23_Sp_counted_ptr_inplaceIN4AMQP14DeferredCancelESaIS1_ELN9__gnu_cxx12_Lock_policyE2EED1Ev@Base 4.3.23
 (optional=templinst)_ZNSt23_Sp_counted_ptr_inplaceIN4AMQP14DeferredCancelESaIS1_ELN9__gnu_cxx12_Lock_policyE2EED2Ev@Base 4.3.23
 (optional=templinst)_ZNSt23_Sp_counted_ptr_inplaceIN4AMQP14DeferredDeleteESaIS1_ELN9__gnu_cxx12_Lock_policyE2EE10_M_destroyEv@Base 4.3.23
 (optional=templinst)_ZNSt23_Sp_counted_ptr_inplaceIN4AMQP14DeferredDeleteESaIS1_ELN9__gnu_cxx12_Lock_policyE2EE10_M_disposeEv@Base 4.3.23
 (optional=templinst)_ZNSt23_Sp_counted_ptr_inplaceIN4AMQP14DeferredDeleteESaIS1_ELN9__gnu_cxx12_Lock_policyE2EE14_M_get_deleterERKSt9type_info@Base 4.3.23
 (optional=templinst)_ZNSt23_Sp_counted_ptr_inplaceIN4AMQP14DeferredDeleteESaIS1_ELN9__gnu_cxx12_Lock_policyE2EED0Ev@Base 4.3.23
 (optional=templinst)_ZNSt23_Sp_counted_ptr_inplaceIN4AMQP14DeferredDeleteESaIS1_ELN9__gnu_cxx12_Lock_policyE2EED1Ev@Base 4.3.23
 (optional=templinst)_ZNSt23_Sp_counted_ptr_inplaceIN4AMQP14DeferredDeleteESaIS1_ELN9__gnu_cxx12_Lock_policyE2EED2Ev@Base 4.3.23
 (optional=templinst)_ZNSt23_Sp_counted_ptr_inplaceIN4AMQP14DeferredRecallESaIS1_ELN9__gnu_cxx12_Lock_policyE2EE10_M_destroyEv@Base 4.3.23
 (optional=templinst)_ZNSt23_Sp_counted_ptr_inplaceIN4AMQP14DeferredRecallESaIS1_ELN9__gnu_cxx12_Lock_policyE2EE10_M_disposeEv@Base 4.3.23
 (optional=templinst)_ZNSt23_Sp_counted_ptr_inplaceIN4AMQP14DeferredRecallESaIS1_ELN9__gnu_cxx12_Lock_policyE2EE14_M_get_deleterERKSt9type_info@Base 4.3.23
 (optional=templinst)_ZNSt23_Sp_counted_ptr_inplaceIN4AMQP14DeferredRecallESaIS1_ELN9__gnu_cxx12_Lock_policyE2EED0Ev@Base 4.3.23
 (optional=templinst)_ZNSt23_Sp_counted_ptr_inplaceIN4AMQP14DeferredRecallESaIS1_ELN9__gnu_cxx12_Lock_policyE2EED1Ev@Base 4.3.23
 (optional=templinst)_ZNSt23_Sp_counted_ptr_inplaceIN4AMQP14DeferredRecallESaIS1_ELN9__gnu_cxx12_Lock_policyE2EED2Ev@Base 4.3.23
 (optional=templinst)_ZNSt23_Sp_counted_ptr_inplaceIN4AMQP15DeferredConfirmESaIS1_ELN9__gnu_cxx12_Lock_policyE2EE10_M_destroyEv@Base 4.3.23
 (optional=templinst)_ZNSt23_Sp_counted_ptr_inplaceIN4AMQP15DeferredConfirmESaIS1_ELN9__gnu_cxx12_Lock_policyE2EE10_M_disposeEv@Base 4.3.23
 (optional=templinst)_ZNSt23_Sp_counted_ptr_inplaceIN4AMQP15DeferredConfirmESaIS1_ELN9__gnu_cxx12_Lock_policyE2EE14_M_get_deleterERKSt9type_info@Base 4.3.23
 (optional=templinst)_ZNSt23_Sp_counted_ptr_inplaceIN4AMQP15DeferredConfirmESaIS1_ELN9__gnu_cxx12_Lock_policyE2EED0Ev@Base 4.3.23
 (optional=templinst)_ZNSt23_Sp_counted_ptr_inplaceIN4AMQP15DeferredConfirmESaIS1_ELN9__gnu_cxx12_Lock_policyE2EED1Ev@Base 4.3.23
 (optional=templinst)_ZNSt23_Sp_counted_ptr_inplaceIN4AMQP15DeferredConfirmESaIS1_ELN9__gnu_cxx12_Lock_policyE2EED2Ev@Base 4.3.23
 (optional=templinst)_ZNSt23_Sp_counted_ptr_inplaceIN4AMQP16DeferredConsumerESaIS1_ELN9__gnu_cxx12_Lock_policyE2EE10_M_destroyEv@Base 4.3.23
 (optional=templinst)_ZNSt23_Sp_counted_ptr_inplaceIN4AMQP16DeferredConsumerESaIS1_ELN9__gnu_cxx12_Lock_policyE2EE10_M_disposeEv@Base 4.3.23
 (optional=templinst)_ZNSt23_Sp_counted_ptr_inplaceIN4AMQP16DeferredConsumerESaIS1_ELN9__gnu_cxx12_Lock_policyE2EE14_M_get_deleterERKSt9type_info@Base 4.3.23
 (optional=templinst)_ZNSt23_Sp_counted_ptr_inplaceIN4AMQP16DeferredConsumerESaIS1_ELN9__gnu_cxx12_Lock_policyE2EED0Ev@Base 4.3.23
 (optional=templinst)_ZNSt23_Sp_counted_ptr_inplaceIN4AMQP16DeferredConsumerESaIS1_ELN9__gnu_cxx12_Lock_policyE2EED1Ev@Base 4.3.23
 (optional=templinst)_ZNSt23_Sp_counted_ptr_inplaceIN4AMQP16DeferredConsumerESaIS1_ELN9__gnu_cxx12_Lock_policyE2EED2Ev@Base 4.3.23
 (optional=templinst)_ZNSt23_Sp_counted_ptr_inplaceIN4AMQP8DeferredESaIS1_ELN9__gnu_cxx12_Lock_policyE2EE10_M_destroyEv@Base 4.3.23
 (optional=templinst)_ZNSt23_Sp_counted_ptr_inplaceIN4AMQP8DeferredESaIS1_ELN9__gnu_cxx12_Lock_policyE2EE10_M_disposeEv@Base 4.3.23
 (optional=templinst)_ZNSt23_Sp_counted_ptr_inplaceIN4AMQP8DeferredESaIS1_ELN9__gnu_cxx12_Lock_policyE2EE14_M_get_deleterERKSt9type_info@Base 4.3.23
 (optional=templinst)_ZNSt23_Sp_counted_ptr_inplaceIN4AMQP8DeferredESaIS1_ELN9__gnu_cxx12_Lock_policyE2EED0Ev@Base 4.3.23
 (optional=templinst)_ZNSt23_Sp_counted_ptr_inplaceIN4AMQP8DeferredESaIS1_ELN9__gnu_cxx12_Lock_policyE2EED1Ev@Base 4.3.23
 (optional=templinst)_ZNSt23_Sp_counted_ptr_inplaceIN4AMQP8DeferredESaIS1_ELN9__gnu_cxx12_Lock_policyE2EED2Ev@Base 4.3.23
 (optional=templinst|subst|arch=i386)_ZNSt23mersenne_twister_engineI{size_t}L{size_t}32EL{size_t}624EL{size_t}397EL{size_t}31EL{size_t}2567483615EL{size_t}11EL{size_t}4294967295EL{size_t}7EL{size_t}2636928640EL{size_t}15EL{size_t}4022730752EL{size_t}18EL{size_t}1812433253EE11_M_gen_randEv@Base 4.3.23
 (optional=templinst|subst|arch=i386)_ZNSt23mersenne_twister_engineI{size_t}L{size_t}32EL{size_t}624EL{size_t}397EL{size_t}31EL{size_t}2567483615EL{size_t}11EL{size_t}4294967295EL{size_t}7EL{size_t}2636928640EL{size_t}15EL{size_t}4022730752EL{size_t}18EL{size_t}1812433253EEclEv@Base 4.3.23
 (optional=templinst)_ZNSt5dequeIN4AMQP12CopiedBufferESaIS1_EE16_M_push_back_auxIJRKNS0_5FrameEEEEvDpOT_@Base 4.3.23
 (optional=templinst|subst|arch=i386)_ZNSt5dequeIN4AMQP12CopiedBufferESaIS1_EE17_M_reallocate_mapE{size_t}b@Base 4.3.23
 (optional=templinst)_ZNSt5dequeIN4AMQP12CopiedBufferESaIS1_EED1Ev@Base 4.3.23
 (optional=templinst)_ZNSt5dequeIN4AMQP12CopiedBufferESaIS1_EED2Ev@Base 4.3.23
 (optional=templinst|subst|arch=i386)_ZNSt5dequeISt4pairI{uint64_t}N4AMQP12CopiedBufferEESaIS3_EE16_M_push_back_auxIJR{uint64_t}RKNS1_5FrameEEEEvDpOT_@Base 4.3.23
 (optional=templinst)_ZNSt5dequeISt6vectorIcSaIcEESaIS2_EE16_M_push_back_auxIJRPKcS7_EEEvDpOT_@Base 4.3.23
 (optional=templinst)_ZNSt5dequeISt6vectorIcSaIcEESaIS2_EED1Ev@Base 4.3.23
 (optional=templinst)_ZNSt5dequeISt6vectorIcSaIcEESaIS2_EED2Ev@Base 4.3.23
 (optional=templinst)_ZNSt6thread11_State_implINS_8_InvokerISt5tupleIJSt5_BindIFMN4AMQP11TcpResolverEFvvEPS5_EEEEEEE6_M_runEv@Base 4.3.23
 (optional=templinst)_ZNSt6thread11_State_implINS_8_InvokerISt5tupleIJSt5_BindIFMN4AMQP11TcpResolverEFvvEPS5_EEEEEEED0Ev@Base 4.3.23
 (optional=templinst)_ZNSt6thread11_State_implINS_8_InvokerISt5tupleIJSt5_BindIFMN4AMQP11TcpResolverEFvvEPS5_EEEEEEED1Ev@Base 4.3.23
 (optional=templinst)_ZNSt6thread11_State_implINS_8_InvokerISt5tupleIJSt5_BindIFMN4AMQP11TcpResolverEFvvEPS5_EEEEEEED2Ev@Base 4.3.23
 (optional=templinst)_ZNSt6vectorINSt7__cxx1112basic_stringIcSt11char_traitsIcESaIcEEESaIS5_EE17_M_realloc_insertIJRKS5_EEEvN9__gnu_cxx17__normal_iteratorIPS5_S7_EEDpOT_@Base 4.3.23
 (optional=templinst)_ZNSt6vectorIP8addrinfoSaIS1_EE17_M_realloc_insertIJRKS1_EEEvN9__gnu_cxx17__normal_iteratorIPS1_S3_EEDpOT_@Base 4.3.23
 (optional=templinst)_ZNSt6vectorIPN4AMQP7MonitorESaIS2_EE17_M_realloc_insertIJRKS2_EEEvN9__gnu_cxx17__normal_iteratorIPS2_S4_EEDpOT_@Base 4.3.23
 (optional=templinst)_ZNSt6vectorISt10unique_ptrIN4AMQP5FieldESt14default_deleteIS2_EESaIS5_EE17_M_realloc_insertIJS5_EEEvN9__gnu_cxx17__normal_iteratorIPS5_S7_EEDpOT_@Base 4.3.23
 (optional=templinst)_ZNSt6vectorISt10unique_ptrIN4AMQP5FieldESt14default_deleteIS2_EESaIS5_EED1Ev@Base 4.3.23
 (optional=templinst)_ZNSt6vectorISt10unique_ptrIN4AMQP5FieldESt14default_deleteIS2_EESaIS5_EED2Ev@Base 4.3.23
 (optional=templinst)_ZNSt7__cxx1112basic_stringIcSt11char_traitsIcESaIcEEC1IS3_EEPKcRKS3_@Base 4.3.23
 (optional=templinst)_ZNSt7__cxx1112basic_stringIcSt11char_traitsIcESaIcEEC2IS3_EEPKcRKS3_@Base 4.3.23
 _ZNSt7__cxx119to_stringEi@Base 4.3.23
 (optional=templinst)_ZNSt8_Rb_treeINSt7__cxx1112basic_stringIcSt11char_traitsIcESaIcEEESt4pairIKS5_St10shared_ptrIN4AMQP16DeferredConsumerEEESt10_Select1stISC_ESt4lessIS5_ESaISC_EE11equal_rangeERS7_@Base 4.3.23
 (optional=templinst)_ZNSt8_Rb_treeINSt7__cxx1112basic_stringIcSt11char_traitsIcESaIcEEESt4pairIKS5_St10shared_ptrIN4AMQP16DeferredConsumerEEESt10_Select1stISC_ESt4lessIS5_ESaISC_EE24_M_get_insert_unique_posERS7_@Base 4.3.23
 (optional=templinst)_ZNSt8_Rb_treeINSt7__cxx1112basic_stringIcSt11char_traitsIcESaIcEEESt4pairIKS5_St10shared_ptrIN4AMQP16DeferredConsumerEEESt10_Select1stISC_ESt4lessIS5_ESaISC_EE29_M_get_insert_hint_unique_posESt23_Rb_tree_const_iteratorISC_ERS7_@Base 4.3.23
 (optional=templinst)_ZNSt8_Rb_treeINSt7__cxx1112basic_stringIcSt11char_traitsIcESaIcEEESt4pairIKS5_St10unique_ptrIN4AMQP5FieldESt14default_deleteISA_EEESt10_Select1stISE_ESt4lessIS5_ESaISE_EE22_M_emplace_hint_uniqueIJS6_IS5_SD_EEEESt17_Rb_tree_iteratorISE_ESt23_Rb_tree_const_iteratorISE_EDpOT_@Base 4.3.23
 (optional=templinst)_ZNSt8_Rb_treeINSt7__cxx1112basic_stringIcSt11char_traitsIcESaIcEEESt4pairIKS5_St10unique_ptrIN4AMQP5FieldESt14default_deleteISA_EEESt10_Select1stISE_ESt4lessIS5_ESaISE_EE24_M_get_insert_unique_posERS7_@Base 4.3.23
 (optional=templinst)_ZNSt8_Rb_treeINSt7__cxx1112basic_stringIcSt11char_traitsIcESaIcEEESt4pairIKS5_St10unique_ptrIN4AMQP5FieldESt14default_deleteISA_EEESt10_Select1stISE_ESt4lessIS5_ESaISE_EE29_M_get_insert_hint_unique_posESt23_Rb_tree_const_iteratorISE_ERS7_@Base 4.3.23
 (optional=templinst)_ZNSt8_Rb_treeINSt7__cxx1112basic_stringIcSt11char_traitsIcESaIcEEESt4pairIKS5_St10unique_ptrIN4AMQP5FieldESt14default_deleteISA_EEESt10_Select1stISE_ESt4lessIS5_ESaISE_EE8_M_eraseEPSt13_Rb_tree_nodeISE_E@Base 4.3.23
 (optional=templinst|arch=i386)_ZNSt8_Rb_treeIjjSt9_IdentityIjESt4lessIjESaIjEE16_M_insert_uniqueIjEESt4pairISt17_Rb_tree_iteratorIjEbEOT_@Base 4.3.23
 (optional=templinst|arch=i386)_ZNSt8_Rb_treeIjjSt9_IdentityIjESt4lessIjESaIjEE5eraseERKj@Base 4.3.23
 (optional=templinst|arch=amd64)_ZNSt8_Rb_treeImmSt9_IdentityImESt4lessImESaImEE16_M_insert_uniqueIRKmEESt4pairISt17_Rb_tree_iteratorImEbEOT_@Base 4.3.23
 (optional=templinst|arch=amd64)_ZNSt8_Rb_treeImmSt9_IdentityImESt4lessImESaImEE5eraseERKm@Base 4.3.23
 (optional=templinst|subst|arch=i386)_ZNSt8_Rb_treeI{size_t}{size_t}St9_IdentityI{size_t}ESt4lessI{size_t}ESaI{size_t}EE12_M_erase_auxESt23_Rb_tree_const_iteratorI{size_t}ES7_@Base 4.3.23
 (optional=templinst)_ZNSt8__detail9_Map_baseItSt4pairIKtSt10shared_ptrIN4AMQP11ChannelImplEEESaIS7_ENS_10_Select1stESt8equal_toItESt4hashItENS_18_Mod_range_hashingENS_20_Default_ranged_hashENS_20_Prime_rehash_policyENS_17_Hashtable_traitsILb0ELb0ELb1EEELb1EEixERS2_@Base 4.3.23
 (optional=templinst|subst|arch=i386)_ZSt13__adjust_heapIN9__gnu_cxx17__normal_iteratorIPP8addrinfoSt6vectorIS3_SaIS3_EEEE{ssize_t}S3_NS0_5__ops15_Iter_comp_iterIZN4AMQP11AddressInfo4sortEvEUlPKS2_SE_E_EEEvT_T0_SI_T1_T2_@Base 4.3.23
 (optional=templinst)_ZSt16__insertion_sortIN9__gnu_cxx17__normal_iteratorIPP8addrinfoSt6vectorIS3_SaIS3_EEEENS0_5__ops15_Iter_comp_iterIZN4AMQP11AddressInfo4sortEvEUlPKS2_SE_E_EEEvT_SH_T0_@Base 4.3.23
 (optional=templinst|subst|arch=i386)_ZSt16__introsort_loopIN9__gnu_cxx17__normal_iteratorIPP8addrinfoSt6vectorIS3_SaIS3_EEEE{ssize_t}NS0_5__ops15_Iter_comp_iterIZN4AMQP11AddressInfo4sortEvEUlPKS2_SE_E_EEEvT_SH_T0_T1_@Base 4.3.23
 _ZSt20__throw_bad_weak_ptrv@Base 4.3.23
 (optional=templinst)_ZSt22__final_insertion_sortIN9__gnu_cxx17__normal_iteratorIPP8addrinfoSt6vectorIS3_SaIS3_EEEENS0_5__ops15_Iter_comp_iterIZN4AMQP11AddressInfo4sortEvEUlPKS2_SE_E_EEEvT_SH_T0_@Base 4.3.23
 (optional=templinst)_ZSt22__move_median_to_firstIN9__gnu_cxx17__normal_iteratorIPP8addrinfoSt6vectorIS3_SaIS3_EEEENS0_5__ops15_Iter_comp_iterIZN4AMQP11AddressInfo4sortEvEUlPKS2_SE_E_EEEvT_SH_SH_SH_T0_@Base 4.3.23
 (optional=templinst|subst|arch=i386)_ZSt7shuffleIN9__gnu_cxx17__normal_iteratorIPP8addrinfoSt6vectorIS3_SaIS3_EEEERSt23mersenne_twister_engineI{size_t}L{size_t}32EL{size_t}624EL{size_t}397EL{size_t}31EL{size_t}2567483615EL{size_t}11EL{size_t}4294967295EL{size_t}7EL{size_t}2636928640EL{size_t}15EL{size_t}4022730752EL{size_t}18EL{size_t}1812433253EEEvT_SC_OT0_@Base 4.3.23
 (optional=templinst|arch=amd64)_ZStplIcSt11char_traitsIcESaIcEENSt7__cxx1112basic_stringIT_T0_T1_EEOS8_PKS5_@Base 4.3.23
 (optional=templinst)_ZStplIcSt11char_traitsIcESaIcEENSt7__cxx1112basic_stringIT_T0_T1_EEOS8_S9_@Base 4.3.23
 (optional=templinst|arch=amd64)_ZStplIcSt11char_traitsIcESaIcEENSt7__cxx1112basic_stringIT_T0_T1_EEPKS5_OS8_@Base 4.3.23
 _ZTIN4AMQP10BasicFrameE@Base 4.3.23
 _ZTIN4AMQP10BooleanSetE@Base 4.3.23
 _ZTIN4AMQP10ByteBufferE@Base 4.3.23
 _ZTIN4AMQP10ConnectionE@Base 4.3.23
 _ZTIN4AMQP10QueueFrameE@Base 4.3.23
 _ZTIN4AMQP10SslContextE@Base 4.3.23
 _ZTIN4AMQP10SslWrapperE@Base 4.3.23
 _ZTIN4AMQP11AddressInfoE@Base 4.3.23
 _ZTIN4AMQP11ChannelImplE@Base 4.3.23
 _ZTIN4AMQP11DeferredGetE@Base 4.3.23
 _ZTIN4AMQP11HeaderFrameE@Base 4.3.23
 _ZTIN4AMQP11MethodFrameE@Base 4.3.23
 _ZTIN4AMQP11SslShutdownE@Base 4.3.23
 _ZTIN4AMQP11StringFieldINS_12NumericFieldIhLc66ESt9enable_ifILb1EhEEELc115EEE@Base 4.3.23
 _ZTIN4AMQP11StringFieldINS_12NumericFieldIjLc105ESt9enable_ifILb1EjEEELc83EEE@Base 4.3.23
 _ZTIN4AMQP11TcpExtStateE@Base 4.3.23
 _ZTIN4AMQP11TcpInBufferE@Base 4.3.23
 _ZTIN4AMQP11TcpResolverE@Base 4.3.23
 _ZTIN4AMQP12ChannelFrameE@Base 4.3.23
 _ZTIN4AMQP12ConfirmFrameE@Base 4.3.23
 _ZTIN4AMQP12CopiedBufferE@Base 4.3.23
 _ZTIN4AMQP12DecimalFieldE@Base 4.3.23
 _ZTIN4AMQP12NumericFieldIaLc98ESt9enable_ifILb1EaEEE@Base 4.3.23
 _ZTIN4AMQP12NumericFieldIdLc100ESt9enable_ifILb1EdEEE@Base 4.3.23
 _ZTIN4AMQP12NumericFieldIfLc102ESt9enable_ifILb1EfEEE@Base 4.3.23
 _ZTIN4AMQP12NumericFieldIhLc66ESt9enable_ifILb1EhEEE@Base 4.3.23
 _ZTIN4AMQP12NumericFieldIiLc73ESt9enable_ifILb1EiEEE@Base 4.3.23
 _ZTIN4AMQP12NumericFieldIjLc105ESt9enable_ifILb1EjEEE@Base 4.3.23
 _ZTIN4AMQP12NumericFieldIsLc85ESt9enable_ifILb1EsEEE@Base 4.3.23
 _ZTIN4AMQP12NumericFieldItLc117ESt9enable_ifILb1EtEEE@Base 4.3.23
 (optional=templinst|subst|arch=i386)_ZTIN4AMQP12NumericFieldI{int64_t}Lc76ESt9enable_ifILb1E{int64_t}EEE@Base 4.3.23
 (optional=templinst|subst|arch=i386)_ZTIN4AMQP12NumericFieldI{uint64_t}Lc108ESt9enable_ifILb1E{uint64_t}EEE@Base 4.3.23
 (optional=templinst|subst|arch=i386)_ZTIN4AMQP12NumericFieldI{uint64_t}Lc84ESt9enable_ifILb1E{uint64_t}EEE@Base 4.3.23
 _ZTIN4AMQP12SslConnectedE@Base 4.3.23
 _ZTIN4AMQP12SslHandshakeE@Base 4.3.23
 _ZTIN4AMQP12TcpConnectedE@Base 4.3.23
 _ZTIN4AMQP13BasicAckFrameE@Base 4.3.23
 _ZTIN4AMQP13BasicGetFrameE@Base 4.3.23
 _ZTIN4AMQP13BasicQosFrameE@Base 4.3.23
 _ZTIN4AMQP13DeferredQueueE@Base 4.3.23
 _ZTIN4AMQP13ExchangeFrameE@Base 4.3.23
 _ZTIN4AMQP13ReceivedFrameE@Base 4.3.23
 _ZTIN4AMQP13ReducedBufferE@Base 4.3.23
 _ZTIN4AMQP13TcpConnectionE@Base 4.3.23
 _ZTIN4AMQP14BasicNackFrameE@Base 4.3.23
 _ZTIN4AMQP14ConnectionImplE@Base 4.3.23
 _ZTIN4AMQP14DeferredCancelE@Base 4.3.23
 _ZTIN4AMQP14DeferredDeleteE@Base 4.3.23
 _ZTIN4AMQP14DeferredRecallE@Base 4.3.23
 _ZTIN4AMQP14HeartbeatFrameE@Base 4.3.23
 _ZTIN4AMQP14QueueBindFrameE@Base 4.3.23
 _ZTIN4AMQP15BasicGetOKFrameE@Base 4.3.23
 _ZTIN4AMQP15ConnectionFrameE@Base 4.3.23
 _ZTIN4AMQP15ConnectionOrderE@Base 4.3.23
 _ZTIN4AMQP15DeferredConfirmE@Base 4.3.23
 _ZTIN4AMQP15QueuePurgeFrameE@Base 4.3.23
 _ZTIN4AMQP16BasicCancelFrameE@Base 4.3.23
 _ZTIN4AMQP16BasicHeaderFrameE@Base 4.3.23
 _ZTIN4AMQP16BasicRejectFrameE@Base 4.3.23
 _ZTIN4AMQP16BasicReturnFrameE@Base 4.3.23
 _ZTIN4AMQP16ChannelFlowFrameE@Base 4.3.23
 _ZTIN4AMQP16ChannelOpenFrameE@Base 4.3.23
 _ZTIN4AMQP16DeferredConsumerE@Base 4.3.23
 _ZTIN4AMQP16DeferredReceiverE@Base 4.3.23
 _ZTIN4AMQP16QueueDeleteFrameE@Base 4.3.23
 _ZTIN4AMQP16QueueUnbindFrameE@Base 4.3.23
 _ZTIN4AMQP16TransactionFrameE@Base 4.3.23
 _ZTIN4AMQP17BasicConsumeFrameE@Base 4.3.23
 _ZTIN4AMQP17BasicDeliverFrameE@Base 4.3.23
 _ZTIN4AMQP17BasicPublishFrameE@Base 4.3.23
 _ZTIN4AMQP17BasicRecoverFrameE@Base 4.3.23
 _ZTIN4AMQP17ChannelCloseFrameE@Base 4.3.23
 _ZTIN4AMQP17ConnectionHandlerE@Base 4.3.23
 _ZTIN4AMQP17ExchangeBindFrameE@Base 4.3.23
 _ZTIN4AMQP17PassthroughBufferE@Base 4.3.23
 _ZTIN4AMQP17ProtocolExceptionE@Base 4.3.23
 _ZTIN4AMQP17QueueDeclareFrameE@Base 4.3.23
 _ZTIN4AMQP18BasicCancelOKFrameE@Base 4.3.23
 _ZTIN4AMQP18BasicGetEmptyFrameE@Base 4.3.23
 _ZTIN4AMQP18ConfirmSelectFrameE@Base 4.3.23
 _ZTIN4AMQP19BasicConsumeOKFrameE@Base 4.3.23
 _ZTIN4AMQP19ChannelCloseOKFrameE@Base 4.3.23
 _ZTIN4AMQP19ConnectionOpenFrameE@Base 4.3.23
 _ZTIN4AMQP19ConnectionTuneFrameE@Base 4.3.23
 _ZTIN4AMQP19DeferredExtReceiverE@Base 4.3.23
 _ZTIN4AMQP19ExchangeDeleteFrameE@Base 4.3.23
 _ZTIN4AMQP19ExchangeUnbindFrameE@Base 4.3.23
 _ZTIN4AMQP19ProtocolHeaderFrameE@Base 4.3.23
 _ZTIN4AMQP19QueueDeclareOKFrameE@Base 4.3.23
 _ZTIN4AMQP20ConnectionCloseFrameE@Base 4.3.23
 _ZTIN4AMQP20ConnectionStartFrameE@Base 4.3.23
 _ZTIN4AMQP20ExchangeDeclareFrameE@Base 4.3.23
 _ZTIN4AMQP21ConnectionOpenOKFrameE@Base 4.3.23
 _ZTIN4AMQP21ConnectionSecureFrameE@Base 4.3.23
 _ZTIN4AMQP21ConnectionTuneOKFrameE@Base 4.3.23
 _ZTIN4AMQP22BasicRecoverAsyncFrameE@Base 4.3.23
 _ZTIN4AMQP22ConnectionCloseOKFrameE@Base 4.3.23
 _ZTIN4AMQP22ConnectionStartOKFrameE@Base 4.3.23
 _ZTIN4AMQP22TransactionCommitFrameE@Base 4.3.23
 _ZTIN4AMQP22TransactionSelectFrameE@Base 4.3.23
 _ZTIN4AMQP23ConnectionSecureOKFrameE@Base 4.3.23
 _ZTIN4AMQP24TransactionRollbackFrameE@Base 4.3.23
 _ZTIN4AMQP4PipeE@Base 4.3.23
 _ZTIN4AMQP4PollE@Base 4.3.23
 _ZTIN4AMQP5ArrayE@Base 4.3.23
 _ZTIN4AMQP5FieldE@Base 4.3.23
 _ZTIN4AMQP5FrameE@Base 4.3.23
 _ZTIN4AMQP5LoginE@Base 4.3.23
 _ZTIN4AMQP5TableE@Base 4.3.23
 _ZTIN4AMQP6BufferE@Base 4.3.23
 _ZTIN4AMQP6TaggerE@Base 4.3.23
 _ZTIN4AMQP7ChannelE@Base 4.3.23
 _ZTIN4AMQP7MessageE@Base 4.3.23
 _ZTIN4AMQP7MonitorE@Base 4.3.23
 _ZTIN4AMQP8DeferredE@Base 4.3.23
 _ZTIN4AMQP8EnvelopeE@Base 4.3.23
 _ZTIN4AMQP8ExtFrameE@Base 4.3.23
 _ZTIN4AMQP8FunctionIFP10ssl_ctx_stPK13ssl_method_stEEE@Base 4.3.23
 _ZTIN4AMQP8FunctionIFP6ssl_stP10ssl_ctx_stEEE@Base 4.3.23
 _ZTIN4AMQP8FunctionIFPK13ssl_method_stvEEE@Base 4.3.23
 _ZTIN4AMQP8FunctionIFiP10ssl_ctx_stEEE@Base 4.3.23
 _ZTIN4AMQP8FunctionIFiP6ssl_stEEE@Base 4.3.23
 _ZTIN4AMQP8FunctionIFiP6ssl_stPKciEEE@Base 4.3.23
 _ZTIN4AMQP8FunctionIFiP6ssl_stPKviEEE@Base 4.3.23
 _ZTIN4AMQP8FunctionIFiP6ssl_stPviEEE@Base 4.3.23
 _ZTIN4AMQP8FunctionIFiP6ssl_stiEEE@Base 4.3.23
 _ZTIN4AMQP8FunctionIFiPK6ssl_stEEE@Base 4.3.23
 _ZTIN4AMQP8FunctionIFiPK6ssl_stiEEE@Base 4.3.23
 _ZTIN4AMQP8FunctionIFlP10ssl_ctx_stilPvEEE@Base 4.3.23
 _ZTIN4AMQP8FunctionIFlP6ssl_stilPvEEE@Base 4.3.23
 _ZTIN4AMQP8FunctionIFvP10ssl_ctx_stEEE@Base 4.3.23
 _ZTIN4AMQP8FunctionIFvP6ssl_stEEE@Base 4.3.23
 (optional=templinst|subst|arch=i386)_ZTIN4AMQP8FunctionIFvPFiPKc{size_t}PvES3_EEE@Base 4.3.23
 _ZTIN4AMQP8FunctionIFvvEEE@Base 4.3.23
 _ZTIN4AMQP8InBufferE@Base 4.3.23
 _ZTIN4AMQP8MetaDataE@Base 4.3.23
 _ZTIN4AMQP8TcpStateE@Base 4.3.23
 _ZTIN4AMQP8ThrottleE@Base 4.3.23
 _ZTIN4AMQP9BodyFrameE@Base 4.3.23
 _ZTIN4AMQP9ExceptionE@Base 4.3.23
 _ZTIN4AMQP9OutBufferE@Base 4.3.23
 _ZTIN4AMQP9TcpClosedE@Base 4.3.23
 _ZTIN4AMQP9TcpParentE@Base 4.3.23
 _ZTIN4AMQP9VoidFieldE@Base 4.3.23
 _ZTIN4AMQP9WatchableE@Base 4.3.23
 _ZTINSt6thread11_State_implINS_8_InvokerISt5tupleIJSt5_BindIFMN4AMQP11TcpResolverEFvvEPS5_EEEEEEEE@Base 4.3.23
 _ZTISt11_Mutex_baseILN9__gnu_cxx12_Lock_policyE2EE@Base 4.3.23
 _ZTISt15_Sp_counted_ptrIPN4AMQP11ChannelImplELN9__gnu_cxx12_Lock_policyE2EE@Base 4.3.23
 _ZTISt16_Sp_counted_baseILN9__gnu_cxx12_Lock_policyE2EE@Base 4.3.23
 _ZTISt23_Sp_counted_ptr_inplaceIN4AMQP11DeferredGetESaIS1_ELN9__gnu_cxx12_Lock_policyE2EE@Base 4.3.23
 _ZTISt23_Sp_counted_ptr_inplaceIN4AMQP13DeferredQueueESaIS1_ELN9__gnu_cxx12_Lock_policyE2EE@Base 4.3.23
 _ZTISt23_Sp_counted_ptr_inplaceIN4AMQP14DeferredCancelESaIS1_ELN9__gnu_cxx12_Lock_policyE2EE@Base 4.3.23
 _ZTISt23_Sp_counted_ptr_inplaceIN4AMQP14DeferredDeleteESaIS1_ELN9__gnu_cxx12_Lock_policyE2EE@Base 4.3.23
 _ZTISt23_Sp_counted_ptr_inplaceIN4AMQP14DeferredRecallESaIS1_ELN9__gnu_cxx12_Lock_policyE2EE@Base 4.3.23
 _ZTISt23_Sp_counted_ptr_inplaceIN4AMQP15DeferredConfirmESaIS1_ELN9__gnu_cxx12_Lock_policyE2EE@Base 4.3.23
 _ZTISt23_Sp_counted_ptr_inplaceIN4AMQP16DeferredConsumerESaIS1_ELN9__gnu_cxx12_Lock_policyE2EE@Base 4.3.23
 _ZTISt23_Sp_counted_ptr_inplaceIN4AMQP8DeferredESaIS1_ELN9__gnu_cxx12_Lock_policyE2EE@Base 4.3.23
 _ZTISt23enable_shared_from_thisIN4AMQP11ChannelImplEE@Base 4.3.23
 _ZTISt23enable_shared_from_thisIN4AMQP11DeferredGetEE@Base 4.3.23
 _ZTISt23enable_shared_from_thisIN4AMQP14DeferredRecallEE@Base 4.3.23
 _ZTISt23enable_shared_from_thisIN4AMQP16DeferredConsumerEE@Base 4.3.23
 _ZTSN4AMQP10BasicFrameE@Base 4.3.23
 _ZTSN4AMQP10BooleanSetE@Base 4.3.23
 _ZTSN4AMQP10ByteBufferE@Base 4.3.23
 _ZTSN4AMQP10ConnectionE@Base 4.3.23
 _ZTSN4AMQP10QueueFrameE@Base 4.3.23
 _ZTSN4AMQP10SslContextE@Base 4.3.23
 _ZTSN4AMQP10SslWrapperE@Base 4.3.23
 _ZTSN4AMQP11AddressInfoE@Base 4.3.23
 _ZTSN4AMQP11ChannelImplE@Base 4.3.23
 _ZTSN4AMQP11DeferredGetE@Base 4.3.23
 _ZTSN4AMQP11HeaderFrameE@Base 4.3.23
 _ZTSN4AMQP11MethodFrameE@Base 4.3.23
 _ZTSN4AMQP11SslShutdownE@Base 4.3.23
 _ZTSN4AMQP11StringFieldINS_12NumericFieldIhLc66ESt9enable_ifILb1EhEEELc115EEE@Base 4.3.23
 _ZTSN4AMQP11StringFieldINS_12NumericFieldIjLc105ESt9enable_ifILb1EjEEELc83EEE@Base 4.3.23
 _ZTSN4AMQP11TcpExtStateE@Base 4.3.23
 _ZTSN4AMQP11TcpInBufferE@Base 4.3.23
 _ZTSN4AMQP11TcpResolverE@Base 4.3.23
 _ZTSN4AMQP12ChannelFrameE@Base 4.3.23
 _ZTSN4AMQP12ConfirmFrameE@Base 4.3.23
 _ZTSN4AMQP12CopiedBufferE@Base 4.3.23
 _ZTSN4AMQP12DecimalFieldE@Base 4.3.23
 _ZTSN4AMQP12NumericFieldIaLc98ESt9enable_ifILb1EaEEE@Base 4.3.23
 _ZTSN4AMQP12NumericFieldIdLc100ESt9enable_ifILb1EdEEE@Base 4.3.23
 _ZTSN4AMQP12NumericFieldIfLc102ESt9enable_ifILb1EfEEE@Base 4.3.23
 _ZTSN4AMQP12NumericFieldIhLc66ESt9enable_ifILb1EhEEE@Base 4.3.23
 _ZTSN4AMQP12NumericFieldIiLc73ESt9enable_ifILb1EiEEE@Base 4.3.23
 _ZTSN4AMQP12NumericFieldIjLc105ESt9enable_ifILb1EjEEE@Base 4.3.23
 _ZTSN4AMQP12NumericFieldIsLc85ESt9enable_ifILb1EsEEE@Base 4.3.23
 _ZTSN4AMQP12NumericFieldItLc117ESt9enable_ifILb1EtEEE@Base 4.3.23
 (optional=templinst|subst|arch=i386)_ZTSN4AMQP12NumericFieldI{int64_t}Lc76ESt9enable_ifILb1E{int64_t}EEE@Base 4.3.23
 (optional=templinst|subst|arch=i386)_ZTSN4AMQP12NumericFieldI{uint64_t}Lc108ESt9enable_ifILb1E{uint64_t}EEE@Base 4.3.23
 (optional=templinst|subst|arch=i386)_ZTSN4AMQP12NumericFieldI{uint64_t}Lc84ESt9enable_ifILb1E{uint64_t}EEE@Base 4.3.23
 _ZTSN4AMQP12SslConnectedE@Base 4.3.23
 _ZTSN4AMQP12SslHandshakeE@Base 4.3.23
 _ZTSN4AMQP12TcpConnectedE@Base 4.3.23
 _ZTSN4AMQP13BasicAckFrameE@Base 4.3.23
 _ZTSN4AMQP13BasicGetFrameE@Base 4.3.23
 _ZTSN4AMQP13BasicQosFrameE@Base 4.3.23
 _ZTSN4AMQP13DeferredQueueE@Base 4.3.23
 _ZTSN4AMQP13ExchangeFrameE@Base 4.3.23
 _ZTSN4AMQP13ReceivedFrameE@Base 4.3.23
 _ZTSN4AMQP13ReducedBufferE@Base 4.3.23
 _ZTSN4AMQP13TcpConnectionE@Base 4.3.23
 _ZTSN4AMQP14BasicNackFrameE@Base 4.3.23
 _ZTSN4AMQP14ConnectionImplE@Base 4.3.23
 _ZTSN4AMQP14DeferredCancelE@Base 4.3.23
 _ZTSN4AMQP14DeferredDeleteE@Base 4.3.23
 _ZTSN4AMQP14DeferredRecallE@Base 4.3.23
 _ZTSN4AMQP14HeartbeatFrameE@Base 4.3.23
 _ZTSN4AMQP14QueueBindFrameE@Base 4.3.23
 _ZTSN4AMQP15BasicGetOKFrameE@Base 4.3.23
 _ZTSN4AMQP15ConnectionFrameE@Base 4.3.23
 _ZTSN4AMQP15ConnectionOrderE@Base 4.3.23
 _ZTSN4AMQP15DeferredConfirmE@Base 4.3.23
 _ZTSN4AMQP15QueuePurgeFrameE@Base 4.3.23
 _ZTSN4AMQP16BasicCancelFrameE@Base 4.3.23
 _ZTSN4AMQP16BasicHeaderFrameE@Base 4.3.23
 _ZTSN4AMQP16BasicRejectFrameE@Base 4.3.23
 _ZTSN4AMQP16BasicReturnFrameE@Base 4.3.23
 _ZTSN4AMQP16ChannelFlowFrameE@Base 4.3.23
 _ZTSN4AMQP16ChannelOpenFrameE@Base 4.3.23
 _ZTSN4AMQP16DeferredConsumerE@Base 4.3.23
 _ZTSN4AMQP16DeferredReceiverE@Base 4.3.23
 _ZTSN4AMQP16QueueDeleteFrameE@Base 4.3.23
 _ZTSN4AMQP16QueueUnbindFrameE@Base 4.3.23
 _ZTSN4AMQP16TransactionFrameE@Base 4.3.23
 _ZTSN4AMQP17BasicConsumeFrameE@Base 4.3.23
 _ZTSN4AMQP17BasicDeliverFrameE@Base 4.3.23
 _ZTSN4AMQP17BasicPublishFrameE@Base 4.3.23
 _ZTSN4AMQP17BasicRecoverFrameE@Base 4.3.23
 _ZTSN4AMQP17ChannelCloseFrameE@Base 4.3.23
 _ZTSN4AMQP17ConnectionHandlerE@Base 4.3.23
 _ZTSN4AMQP17ExchangeBindFrameE@Base 4.3.23
 _ZTSN4AMQP17PassthroughBufferE@Base 4.3.23
 _ZTSN4AMQP17ProtocolExceptionE@Base 4.3.23
 _ZTSN4AMQP17QueueDeclareFrameE@Base 4.3.23
 _ZTSN4AMQP18BasicCancelOKFrameE@Base 4.3.23
 _ZTSN4AMQP18BasicGetEmptyFrameE@Base 4.3.23
 _ZTSN4AMQP18ConfirmSelectFrameE@Base 4.3.23
 _ZTSN4AMQP19BasicConsumeOKFrameE@Base 4.3.23
 _ZTSN4AMQP19ChannelCloseOKFrameE@Base 4.3.23
 _ZTSN4AMQP19ConnectionOpenFrameE@Base 4.3.23
 _ZTSN4AMQP19ConnectionTuneFrameE@Base 4.3.23
 _ZTSN4AMQP19DeferredExtReceiverE@Base 4.3.23
 _ZTSN4AMQP19ExchangeDeleteFrameE@Base 4.3.23
 _ZTSN4AMQP19ExchangeUnbindFrameE@Base 4.3.23
 _ZTSN4AMQP19ProtocolHeaderFrameE@Base 4.3.23
 _ZTSN4AMQP19QueueDeclareOKFrameE@Base 4.3.23
 _ZTSN4AMQP20ConnectionCloseFrameE@Base 4.3.23
 _ZTSN4AMQP20ConnectionStartFrameE@Base 4.3.23
 _ZTSN4AMQP20ExchangeDeclareFrameE@Base 4.3.23
 _ZTSN4AMQP21ConnectionOpenOKFrameE@Base 4.3.23
 _ZTSN4AMQP21ConnectionSecureFrameE@Base 4.3.23
 _ZTSN4AMQP21ConnectionTuneOKFrameE@Base 4.3.23
 _ZTSN4AMQP22BasicRecoverAsyncFrameE@Base 4.3.23
 _ZTSN4AMQP22ConnectionCloseOKFrameE@Base 4.3.23
 _ZTSN4AMQP22ConnectionStartOKFrameE@Base 4.3.23
 _ZTSN4AMQP22TransactionCommitFrameE@Base 4.3.23
 _ZTSN4AMQP22TransactionSelectFrameE@Base 4.3.23
 _ZTSN4AMQP23ConnectionSecureOKFrameE@Base 4.3.23
 _ZTSN4AMQP24TransactionRollbackFrameE@Base 4.3.23
 _ZTSN4AMQP4PipeE@Base 4.3.23
 _ZTSN4AMQP4PollE@Base 4.3.23
 _ZTSN4AMQP5ArrayE@Base 4.3.23
 _ZTSN4AMQP5FieldE@Base 4.3.23
 _ZTSN4AMQP5FrameE@Base 4.3.23
 _ZTSN4AMQP5LoginE@Base 4.3.23
 _ZTSN4AMQP5TableE@Base 4.3.23
 _ZTSN4AMQP6BufferE@Base 4.3.23
 _ZTSN4AMQP6TaggerE@Base 4.3.23
 _ZTSN4AMQP7ChannelE@Base 4.3.23
 _ZTSN4AMQP7MessageE@Base 4.3.23
 _ZTSN4AMQP7MonitorE@Base 4.3.23
 _ZTSN4AMQP8DeferredE@Base 4.3.23
 _ZTSN4AMQP8EnvelopeE@Base 4.3.23
 _ZTSN4AMQP8ExtFrameE@Base 4.3.23
 _ZTSN4AMQP8FunctionIFP10ssl_ctx_stPK13ssl_method_stEEE@Base 4.3.23
 _ZTSN4AMQP8FunctionIFP6ssl_stP10ssl_ctx_stEEE@Base 4.3.23
 _ZTSN4AMQP8FunctionIFPK13ssl_method_stvEEE@Base 4.3.23
 _ZTSN4AMQP8FunctionIFiP10ssl_ctx_stEEE@Base 4.3.23
 _ZTSN4AMQP8FunctionIFiP6ssl_stEEE@Base 4.3.23
 _ZTSN4AMQP8FunctionIFiP6ssl_stPKciEEE@Base 4.3.23
 _ZTSN4AMQP8FunctionIFiP6ssl_stPKviEEE@Base 4.3.23
 _ZTSN4AMQP8FunctionIFiP6ssl_stPviEEE@Base 4.3.23
 _ZTSN4AMQP8FunctionIFiP6ssl_stiEEE@Base 4.3.23
 _ZTSN4AMQP8FunctionIFiPK6ssl_stEEE@Base 4.3.23
 _ZTSN4AMQP8FunctionIFiPK6ssl_stiEEE@Base 4.3.23
 _ZTSN4AMQP8FunctionIFlP10ssl_ctx_stilPvEEE@Base 4.3.23
 _ZTSN4AMQP8FunctionIFlP6ssl_stilPvEEE@Base 4.3.23
 _ZTSN4AMQP8FunctionIFvP10ssl_ctx_stEEE@Base 4.3.23
 _ZTSN4AMQP8FunctionIFvP6ssl_stEEE@Base 4.3.23
 (optional=templinst|subst|arch=i386)_ZTSN4AMQP8FunctionIFvPFiPKc{size_t}PvES3_EEE@Base 4.3.23
 _ZTSN4AMQP8FunctionIFvvEEE@Base 4.3.23
 _ZTSN4AMQP8InBufferE@Base 4.3.23
 _ZTSN4AMQP8MetaDataE@Base 4.3.23
 _ZTSN4AMQP8TcpStateE@Base 4.3.23
 _ZTSN4AMQP8ThrottleE@Base 4.3.23
 _ZTSN4AMQP9BodyFrameE@Base 4.3.23
 _ZTSN4AMQP9ExceptionE@Base 4.3.23
 _ZTSN4AMQP9OutBufferE@Base 4.3.23
 _ZTSN4AMQP9TcpClosedE@Base 4.3.23
 _ZTSN4AMQP9TcpParentE@Base 4.3.23
 _ZTSN4AMQP9VoidFieldE@Base 4.3.23
 _ZTSN4AMQP9WatchableE@Base 4.3.23
 _ZTSNSt6thread11_State_implINS_8_InvokerISt5tupleIJSt5_BindIFMN4AMQP11TcpResolverEFvvEPS5_EEEEEEEE@Base 4.3.23
 _ZTSSt11_Mutex_baseILN9__gnu_cxx12_Lock_policyE2EE@Base 4.3.23
 _ZTSSt15_Sp_counted_ptrIPN4AMQP11ChannelImplELN9__gnu_cxx12_Lock_policyE2EE@Base 4.3.23
 _ZTSSt16_Sp_counted_baseILN9__gnu_cxx12_Lock_policyE2EE@Base 4.3.23
 _ZTSSt19_Sp_make_shared_tag@Base 4.3.23
 _ZTSSt23_Sp_counted_ptr_inplaceIN4AMQP11DeferredGetESaIS1_ELN9__gnu_cxx12_Lock_policyE2EE@Base 4.3.23
 _ZTSSt23_Sp_counted_ptr_inplaceIN4AMQP13DeferredQueueESaIS1_ELN9__gnu_cxx12_Lock_policyE2EE@Base 4.3.23
 _ZTSSt23_Sp_counted_ptr_inplaceIN4AMQP14DeferredCancelESaIS1_ELN9__gnu_cxx12_Lock_policyE2EE@Base 4.3.23
 _ZTSSt23_Sp_counted_ptr_inplaceIN4AMQP14DeferredDeleteESaIS1_ELN9__gnu_cxx12_Lock_policyE2EE@Base 4.3.23
 _ZTSSt23_Sp_counted_ptr_inplaceIN4AMQP14DeferredRecallESaIS1_ELN9__gnu_cxx12_Lock_policyE2EE@Base 4.3.23
 _ZTSSt23_Sp_counted_ptr_inplaceIN4AMQP15DeferredConfirmESaIS1_ELN9__gnu_cxx12_Lock_policyE2EE@Base 4.3.23
 _ZTSSt23_Sp_counted_ptr_inplaceIN4AMQP16DeferredConsumerESaIS1_ELN9__gnu_cxx12_Lock_policyE2EE@Base 4.3.23
 _ZTSSt23_Sp_counted_ptr_inplaceIN4AMQP8DeferredESaIS1_ELN9__gnu_cxx12_Lock_policyE2EE@Base 4.3.23
 _ZTSSt23enable_shared_from_thisIN4AMQP11ChannelImplEE@Base 4.3.23
 _ZTSSt23enable_shared_from_thisIN4AMQP11DeferredGetEE@Base 4.3.23
 _ZTSSt23enable_shared_from_thisIN4AMQP14DeferredRecallEE@Base 4.3.23
 _ZTSSt23enable_shared_from_thisIN4AMQP16DeferredConsumerEE@Base 4.3.23
 _ZTVN4AMQP10BooleanSetE@Base 4.3.23
 _ZTVN4AMQP10ConnectionE@Base 4.3.23
 _ZTVN4AMQP10SslContextE@Base 4.3.23
 _ZTVN4AMQP10SslWrapperE@Base 4.3.23
 _ZTVN4AMQP11AddressInfoE@Base 4.3.23
 _ZTVN4AMQP11ChannelImplE@Base 4.3.23
 _ZTVN4AMQP11DeferredGetE@Base 4.3.23
 _ZTVN4AMQP11SslShutdownE@Base 4.3.23
 _ZTVN4AMQP11StringFieldINS_12NumericFieldIhLc66ESt9enable_ifILb1EhEEELc115EEE@Base 4.3.23
 _ZTVN4AMQP11StringFieldINS_12NumericFieldIjLc105ESt9enable_ifILb1EjEEELc83EEE@Base 4.3.23
 _ZTVN4AMQP11TcpExtStateE@Base 4.3.23
 _ZTVN4AMQP11TcpInBufferE@Base 4.3.23
 _ZTVN4AMQP11TcpResolverE@Base 4.3.23
 _ZTVN4AMQP12CopiedBufferE@Base 4.3.23
 _ZTVN4AMQP12DecimalFieldE@Base 4.3.23
 _ZTVN4AMQP12NumericFieldIaLc98ESt9enable_ifILb1EaEEE@Base 4.3.23
 _ZTVN4AMQP12NumericFieldIdLc100ESt9enable_ifILb1EdEEE@Base 4.3.23
 _ZTVN4AMQP12NumericFieldIfLc102ESt9enable_ifILb1EfEEE@Base 4.3.23
 _ZTVN4AMQP12NumericFieldIhLc66ESt9enable_ifILb1EhEEE@Base 4.3.23
 _ZTVN4AMQP12NumericFieldIiLc73ESt9enable_ifILb1EiEEE@Base 4.3.23
 _ZTVN4AMQP12NumericFieldIjLc105ESt9enable_ifILb1EjEEE@Base 4.3.23
 _ZTVN4AMQP12NumericFieldIsLc85ESt9enable_ifILb1EsEEE@Base 4.3.23
 _ZTVN4AMQP12NumericFieldItLc117ESt9enable_ifILb1EtEEE@Base 4.3.23
 (optional=templinst|subst|arch=i386)_ZTVN4AMQP12NumericFieldI{int64_t}Lc76ESt9enable_ifILb1E{int64_t}EEE@Base 4.3.23
 (optional=templinst|subst|arch=i386)_ZTVN4AMQP12NumericFieldI{uint64_t}Lc108ESt9enable_ifILb1E{uint64_t}EEE@Base 4.3.23
 (optional=templinst|subst|arch=i386)_ZTVN4AMQP12NumericFieldI{uint64_t}Lc84ESt9enable_ifILb1E{uint64_t}EEE@Base 4.3.23
 _ZTVN4AMQP12SslConnectedE@Base 4.3.23
 _ZTVN4AMQP12SslHandshakeE@Base 4.3.23
 _ZTVN4AMQP12TcpConnectedE@Base 4.3.23
 _ZTVN4AMQP13BasicAckFrameE@Base 4.3.23
 _ZTVN4AMQP13BasicGetFrameE@Base 4.3.23
 _ZTVN4AMQP13BasicQosFrameE@Base 4.3.23
 _ZTVN4AMQP13DeferredQueueE@Base 4.3.23
 _ZTVN4AMQP13ReceivedFrameE@Base 4.3.23
 _ZTVN4AMQP13ReducedBufferE@Base 4.3.23
 _ZTVN4AMQP13TcpConnectionE@Base 4.3.23
 _ZTVN4AMQP14BasicNackFrameE@Base 4.3.23
 _ZTVN4AMQP14ConnectionImplE@Base 4.3.23
 _ZTVN4AMQP14DeferredCancelE@Base 4.3.23
 _ZTVN4AMQP14DeferredDeleteE@Base 4.3.23
 _ZTVN4AMQP14DeferredRecallE@Base 4.3.23
 _ZTVN4AMQP14HeartbeatFrameE@Base 4.3.23
 _ZTVN4AMQP14QueueBindFrameE@Base 4.3.23
 _ZTVN4AMQP15BasicGetOKFrameE@Base 4.3.23
 _ZTVN4AMQP15ConnectionOrderE@Base 4.3.23
 _ZTVN4AMQP15DeferredConfirmE@Base 4.3.23
 _ZTVN4AMQP15QueuePurgeFrameE@Base 4.3.23
 _ZTVN4AMQP16BasicCancelFrameE@Base 4.3.23
 _ZTVN4AMQP16BasicHeaderFrameE@Base 4.3.23
 _ZTVN4AMQP16BasicRejectFrameE@Base 4.3.23
 _ZTVN4AMQP16BasicReturnFrameE@Base 4.3.23
 _ZTVN4AMQP16ChannelFlowFrameE@Base 4.3.23
 _ZTVN4AMQP16ChannelOpenFrameE@Base 4.3.23
 _ZTVN4AMQP16DeferredConsumerE@Base 4.3.23
 _ZTVN4AMQP16DeferredReceiverE@Base 4.3.23
 _ZTVN4AMQP16QueueDeleteFrameE@Base 4.3.23
 _ZTVN4AMQP16QueueUnbindFrameE@Base 4.3.23
 _ZTVN4AMQP17BasicConsumeFrameE@Base 4.3.23
 _ZTVN4AMQP17BasicDeliverFrameE@Base 4.3.23
 _ZTVN4AMQP17BasicPublishFrameE@Base 4.3.23
 _ZTVN4AMQP17BasicRecoverFrameE@Base 4.3.23
 _ZTVN4AMQP17ChannelCloseFrameE@Base 4.3.23
 _ZTVN4AMQP17ExchangeBindFrameE@Base 4.3.23
 _ZTVN4AMQP17PassthroughBufferE@Base 4.3.23
 _ZTVN4AMQP17ProtocolExceptionE@Base 4.3.23
 _ZTVN4AMQP17QueueDeclareFrameE@Base 4.3.23
 _ZTVN4AMQP18BasicCancelOKFrameE@Base 4.3.23
 _ZTVN4AMQP18BasicGetEmptyFrameE@Base 4.3.23
 _ZTVN4AMQP18ConfirmSelectFrameE@Base 4.3.23
 _ZTVN4AMQP19BasicConsumeOKFrameE@Base 4.3.23
 _ZTVN4AMQP19ChannelCloseOKFrameE@Base 4.3.23
 _ZTVN4AMQP19ConnectionOpenFrameE@Base 4.3.23
 _ZTVN4AMQP19ConnectionTuneFrameE@Base 4.3.23
 _ZTVN4AMQP19DeferredExtReceiverE@Base 4.3.23
 _ZTVN4AMQP19ExchangeDeleteFrameE@Base 4.3.23
 _ZTVN4AMQP19ExchangeUnbindFrameE@Base 4.3.23
 _ZTVN4AMQP19ProtocolHeaderFrameE@Base 4.3.23
 _ZTVN4AMQP19QueueDeclareOKFrameE@Base 4.3.23
 _ZTVN4AMQP20ConnectionCloseFrameE@Base 4.3.23
 _ZTVN4AMQP20ConnectionStartFrameE@Base 4.3.23
 _ZTVN4AMQP20ExchangeDeclareFrameE@Base 4.3.23
 _ZTVN4AMQP21ConnectionOpenOKFrameE@Base 4.3.23
 _ZTVN4AMQP21ConnectionSecureFrameE@Base 4.3.23
 _ZTVN4AMQP21ConnectionTuneOKFrameE@Base 4.3.23
 _ZTVN4AMQP22BasicRecoverAsyncFrameE@Base 4.3.23
 _ZTVN4AMQP22ConnectionCloseOKFrameE@Base 4.3.23
 _ZTVN4AMQP22ConnectionStartOKFrameE@Base 4.3.23
 _ZTVN4AMQP22TransactionCommitFrameE@Base 4.3.23
 _ZTVN4AMQP22TransactionSelectFrameE@Base 4.3.23
 _ZTVN4AMQP23ConnectionSecureOKFrameE@Base 4.3.23
 _ZTVN4AMQP24TransactionRollbackFrameE@Base 4.3.23
 _ZTVN4AMQP4PipeE@Base 4.3.23
 _ZTVN4AMQP4PollE@Base 4.3.23
 _ZTVN4AMQP5ArrayE@Base 4.3.23
 _ZTVN4AMQP5FieldE@Base 4.3.23
 _ZTVN4AMQP5LoginE@Base 4.3.23
 _ZTVN4AMQP5TableE@Base 4.3.23
 _ZTVN4AMQP6TaggerE@Base 4.3.23
 _ZTVN4AMQP7ChannelE@Base 4.3.23
 _ZTVN4AMQP7MessageE@Base 4.3.23
 _ZTVN4AMQP7MonitorE@Base 4.3.23
 _ZTVN4AMQP8DeferredE@Base 4.3.23
 _ZTVN4AMQP8EnvelopeE@Base 4.3.23
 _ZTVN4AMQP8FunctionIFP10ssl_ctx_stPK13ssl_method_stEEE@Base 4.3.23
 _ZTVN4AMQP8FunctionIFP6ssl_stP10ssl_ctx_stEEE@Base 4.3.23
 _ZTVN4AMQP8FunctionIFPK13ssl_method_stvEEE@Base 4.3.23
 _ZTVN4AMQP8FunctionIFiP10ssl_ctx_stEEE@Base 4.3.23
 _ZTVN4AMQP8FunctionIFiP6ssl_stEEE@Base 4.3.23
 _ZTVN4AMQP8FunctionIFiP6ssl_stPKciEEE@Base 4.3.23
 _ZTVN4AMQP8FunctionIFiP6ssl_stPKviEEE@Base 4.3.23
 _ZTVN4AMQP8FunctionIFiP6ssl_stPviEEE@Base 4.3.23
 _ZTVN4AMQP8FunctionIFiP6ssl_stiEEE@Base 4.3.23
 _ZTVN4AMQP8FunctionIFiPK6ssl_stEEE@Base 4.3.23
 _ZTVN4AMQP8FunctionIFiPK6ssl_stiEEE@Base 4.3.23
 _ZTVN4AMQP8FunctionIFlP10ssl_ctx_stilPvEEE@Base 4.3.23
 _ZTVN4AMQP8FunctionIFlP6ssl_stilPvEEE@Base 4.3.23
 _ZTVN4AMQP8FunctionIFvP10ssl_ctx_stEEE@Base 4.3.23
 _ZTVN4AMQP8FunctionIFvP6ssl_stEEE@Base 4.3.23
 (optional=templinst|subst|arch=i386)_ZTVN4AMQP8FunctionIFvPFiPKc{size_t}PvES3_EEE@Base 4.3.23
 _ZTVN4AMQP8FunctionIFvvEEE@Base 4.3.23
 _ZTVN4AMQP8MetaDataE@Base 4.3.23
 _ZTVN4AMQP8ThrottleE@Base 4.3.23
 _ZTVN4AMQP9BodyFrameE@Base 4.3.23
 _ZTVN4AMQP9ExceptionE@Base 4.3.23
 _ZTVN4AMQP9TcpClosedE@Base 4.3.23
 _ZTVN4AMQP9VoidFieldE@Base 4.3.23
 _ZTVN4AMQP9WatchableE@Base 4.3.23
 _ZTVNSt6thread11_State_implINS_8_InvokerISt5tupleIJSt5_BindIFMN4AMQP11TcpResolverEFvvEPS5_EEEEEEEE@Base 4.3.23
 _ZTVSt15_Sp_counted_ptrIPN4AMQP11ChannelImplELN9__gnu_cxx12_Lock_policyE2EE@Base 4.3.23
 _ZTVSt23_Sp_counted_ptr_inplaceIN4AMQP11DeferredGetESaIS1_ELN9__gnu_cxx12_Lock_policyE2EE@Base 4.3.23
 _ZTVSt23_Sp_counted_ptr_inplaceIN4AMQP13DeferredQueueESaIS1_ELN9__gnu_cxx12_Lock_policyE2EE@Base 4.3.23
 _ZTVSt23_Sp_counted_ptr_inplaceIN4AMQP14DeferredCancelESaIS1_ELN9__gnu_cxx12_Lock_policyE2EE@Base 4.3.23
 _ZTVSt23_Sp_counted_ptr_inplaceIN4AMQP14DeferredDeleteESaIS1_ELN9__gnu_cxx12_Lock_policyE2EE@Base 4.3.23
 _ZTVSt23_Sp_counted_ptr_inplaceIN4AMQP14DeferredRecallESaIS1_ELN9__gnu_cxx12_Lock_policyE2EE@Base 4.3.23
 _ZTVSt23_Sp_counted_ptr_inplaceIN4AMQP15DeferredConfirmESaIS1_ELN9__gnu_cxx12_Lock_policyE2EE@Base 4.3.23
 _ZTVSt23_Sp_counted_ptr_inplaceIN4AMQP16DeferredConsumerESaIS1_ELN9__gnu_cxx12_Lock_policyE2EE@Base 4.3.23
 _ZTVSt23_Sp_counted_ptr_inplaceIN4AMQP8DeferredESaIS1_ELN9__gnu_cxx12_Lock_policyE2EE@Base 4.3.23
 _ZZNSt19_Sp_make_shared_tag5_S_tiEvE5__tag@Base 4.3.23
 (optional=templinst)_ZZNSt8__detail18__to_chars_10_implIjEEvPcjT_E8__digits@Base 4.3.23
 (c++)"non-virtual thunk to AMQP::TcpConnection::expected()@Base" 4.3.23
 (c++)"non-virtual thunk to AMQP::TcpConnection::onConnected(AMQP::TcpState*)@Base" 4.3.23
 (c++)"non-virtual thunk to AMQP::TcpConnection::onError(AMQP::TcpState*, char const*, bool)@Base" 4.3.23
 (c++)"non-virtual thunk to AMQP::TcpConnection::onIdle(AMQP::TcpState*, int, int)@Base" 4.3.23
 (c++)"non-virtual thunk to AMQP::TcpConnection::onLost(AMQP::TcpState*)@Base" 4.3.23
 (c++)"non-virtual thunk to AMQP::TcpConnection::onReceived(AMQP::TcpState*, AMQP::Buffer const&)@Base" 4.3.23
 (c++)"non-virtual thunk to AMQP::TcpConnection::onSecured(AMQP::TcpState*, ssl_st const*)@Base" 4.3.23
 (c++)"non-virtual thunk to AMQP::TcpConnection::onSecuring(AMQP::TcpState*, ssl_st*)@Base" 4.3.23
 (c++)"non-virtual thunk to AMQP::TcpConnection::~TcpConnection()@Base" 4.3.23
